(dp0
(S'Angel'
p1
S'Inn'
p2
tp3
(lp4
S'END'
p5
as(S'NOW'
p6
S'Near'
p7
tp8
(lp9
S'Boot'
p10
aS'Boot'
p11
aS'Boot'
p12
as(S'NOW'
p13
S'Samson'
p14
tp15
(lp16
S'Inn'
p17
as(S'Inglewood'
p18
S'Public'
p19
tp20
(lp21
S'House'
p22
as(S'NOW'
p23
S'Miners'
p24
tp25
(lp26
S'Arms'
p27
as(S'NOW'
p28
S'Brewers'
p29
tp30
(lp31
S'Fayre'
p32
as(S'NOW'
p33
S'The'
p34
tp35
(lp36
S'Boardroom'
p37
aS'Kings'
p38
aS'Lakeland'
p39
aS'Currock'
p40
aS'Boardroom'
p41
aS'Kings'
p42
aS'Wheatsheaf'
p43
aS'Boardroom'
p44
aS'Boardroom'
p45
aS'Kings'
p46
aS'Boardroom'
p47
aS'Kings'
p48
aS'Pheasant'
p49
aS'Boardroom'
p50
aS'Black'
p51
aS'Boardroom'
p52
as(S'NOW'
p53
S'Cafe'
p54
tp55
(lp56
S'Sol'
p57
aS'Sol'
p58
aS'Sol'
p59
aS'Sol'
p60
aS'Sol'
p61
aS'Sol'
p62
as(S'NOW'
p63
S'Ultimate'
p64
tp65
(lp66
S'Dance'
p67
as(S'Blue'
p68
S'Bell'
p69
tp70
(lp71
S'Inn'
p72
as(S'Golden'
p73
S'Lion'
p74
tp75
(lp76
S'END'
p77
as(S'Victoria'
p78
S'Inn'
p79
tp80
(lp81
S'END'
p82
as(g43
S'Inn'
p83
tp84
(lp85
S'END'
p86
as(S'BEGIN'
p87
S'NOW'
p88
tp89
(lp90
S'Lloyds'
p91
aS'Woodrow'
p92
ag34
aS'Walkabout'
p93
ag54
aS'The'
p94
aS'The'
p95
aS'Circle'
p96
aS'Bar'
p97
aS'Turf'
p98
aS'Source'
p99
ag64
aS'Harraby'
p100
aS'The'
p101
aS'Greenbank'
p102
aS'Spinners'
p103
aS'Black'
p104
ag18
aS'St'
p105
aS'Lloyds'
p106
aS'Source'
p107
aS'Lloyds'
p108
ag7
aS'Coach'
p109
aS'The'
p110
aS'Woodrow'
p111
aS'Turf'
p112
aS'Cafe'
p113
aS'The'
p114
aS'Walkabout'
p115
aS'Circle'
p116
aS'Bar'
p117
aS'Lowther'
p118
aS'Greenbank'
p119
ag29
aS'Lloyds'
p120
aS'The'
p121
aS'Woodrow'
p122
aS'The'
p123
aS'Harraby'
p124
aS'Walkabout'
p125
aS'Cafe'
p126
aS'Lloyds'
p127
aS'Woodrow'
p128
aS'The'
p129
aS'Cafe'
p130
aS'The'
p131
aS'Morton'
p132
aS'Source'
p133
aS'Turf'
p134
aS'Walkabout'
p135
aS'Coach'
p136
aS'Lloyds'
p137
aS'Woodrow'
p138
aS'The'
p139
aS'Salutation'
p140
aS'Cafe'
p141
aS'Coach'
p142
aS'Near'
p143
aS'The'
p144
aS'Turf'
p145
aS'Nags'
p146
aS'Dog'
p147
aS'Lloyds'
p148
aS'The'
p149
aS'Bank'
p150
aS'Kirkstile'
p151
aS'Bush'
p152
aS'Old'
p153
aS'Woodrow'
p154
aS'The'
p155
aS'Ye'
p156
aS'Lloyds'
p157
aS'Salutation'
p158
ag14
aS'Woodrow'
p159
aS'The'
p160
aS'The'
p161
aS'Nags'
p162
aS'Howard'
p163
aS'Cafe'
p164
aS'Near'
p165
ag1
aS'George'
p166
aS'Swans'
p167
ag78
ag24
ag68
aS'Elks'
p168
aS'Cowshill'
p169
aS'Kirkstyle'
p170
aS'Weardale'
p171
as(S'NOW'
p172
g109
tp173
(lp174
S'&'
p175
ag175
ag175
as(g34
g37
tp176
(lp177
S'END'
p178
aS'END'
p179
aS'END'
p180
aS'END'
p181
aS'END'
p182
aS'END'
p183
aS'END'
p184
as(g156
S'Olde'
p185
tp186
(lp187
g73
as(g49
S'Inn'
p188
tp189
(lp190
S'END'
p191
as(S'NOW'
p192
g152
tp193
(lp194
S'Hotel'
p195
as(S'NOW'
p196
g18
tp197
(lp198
g19
as(S'NOW'
p199
g100
tp200
(lp201
S'Inn'
p202
aS'Inn'
p203
as(g153
S'Crown'
p204
tp205
(lp206
S'END'
p207
as(S'NOW'
p208
g96
tp209
(lp210
S'Cafe'
p211
aS'Cafe'
p212
as(g140
S'Inn'
p213
tp214
(lp215
S'END'
p216
aS'END'
p217
as(g163
S'Arms'
p218
tp219
(lp220
S'Hotel'
p221
as(S'NOW'
p222
g156
tp223
(lp224
g185
as(S'No'
p225
S'1'
p226
tp227
(lp228
S'END'
p229
aS'END'
p230
aS'END'
p231
aS'END'
p232
aS'END'
p233
aS'END'
p234
aS'END'
p235
aS'END'
p236
as(g38
S'Head'
p237
tp238
(lp239
S'END'
p240
aS'END'
p241
aS'END'
p242
aS'END'
p243
as(g146
S'Head'
p244
tp245
(lp246
S'END'
p247
aS'END'
p248
as(g94
g38
tp249
(lp250
g237
aS'Head'
p251
aS'Head'
p252
aS'Head'
p253
as(g175
S'Dragon'
p254
tp255
(lp256
S'Inn'
p257
as(S'NOW'
p258
g140
tp259
(lp260
g213
aS'Inn'
p261
as(g54
g57
tp262
(lp263
S'END'
p264
aS'END'
p265
aS'END'
p266
aS'END'
p267
aS'END'
p268
aS'END'
p269
as(g169
S'Hotel'
p270
tp271
(lp272
S'END'
p273
as(g109
g175
tp274
(lp275
S'Horses'
p276
aS'Horses'
p277
aS'Horses'
p278
as(g98
S'Tavern'
p279
tp280
(lp281
S'END'
p282
aS'END'
p283
aS'END'
p284
aS'END'
p285
as(S'NOW'
p286
g92
tp287
(lp288
S'Wilson'
p289
aS'Wilson'
p290
aS'Wilson'
p291
aS'Wilson'
p292
aS'Wilson'
p293
aS'Wilson'
p294
aS'Wilson'
p295
as(g24
g27
tp296
(lp297
S'END'
p298
as(g88
g91
tp299
(lp300
g225
aS'No'
p301
aS'No'
p302
aS'No'
p303
aS'No'
p304
aS'No'
p305
aS'No'
p306
aS'No'
p307
as(g166
g175
tp308
(lp309
g254
as(S'NOW'
p310
g169
tp311
(lp312
g270
as(S'NOW'
p313
g98
tp314
(lp315
g279
aS'Tavern'
p316
aS'Tavern'
p317
aS'Tavern'
p318
as(g64
g67
tp319
(lp320
S'Management'
p321
as(g100
g202
tp322
(lp323
S'END'
p324
aS'END'
p325
as(S'NOW'
p326
g168
tp327
(lp328
S'Head'
p329
as(g101
g40
tp330
(lp331
S'END'
p332
as(g152
g195
tp333
(lp334
S'END'
p335
as(S'NOW'
p336
g166
tp337
(lp338
g175
as(g160
g51
tp339
(lp340
S'Bull'
p341
as(g150
S'Tavern'
p342
tp343
(lp344
S'END'
p345
as(S'NOW'
p346
g147
tp347
(lp348
g175
as(S'NOW'
p349
g97
tp350
(lp351
S'END'
p352
aS'END'
p353
as(g95
g39
tp354
(lp355
S'Gate'
p356
as(g92
g289
tp357
(lp358
S'END'
p359
aS'END'
p360
aS'END'
p361
aS'END'
p362
aS'END'
p363
aS'END'
p364
aS'END'
p365
as(g51
g341
tp366
(lp367
S'END'
p368
as(S'NOW'
p369
g104
tp370
(lp371
S'Lion'
p372
as(g69
g72
tp373
(lp374
S'END'
p375
as(g121
g43
tp376
(lp377
g83
as(g254
g257
tp378
(lp379
S'END'
p380
as(S'NOW'
p381
g93
tp382
(lp383
S'END'
p384
aS'END'
p385
aS'END'
p386
aS'END'
p387
as(S'NOW'
p388
g132
tp389
(lp390
S'Manor'
p391
as(g185
g73
tp392
(lp393
g74
as(g39
g356
tp394
(lp395
S'END'
p396
as(g118
S'Arms'
p397
tp398
(lp399
S'END'
p400
as(g10
S'Inn'
p401
tp402
(lp403
S'END'
p404
aS'END'
p405
aS'END'
p406
as(S'NOW'
p407
g102
tp408
(lp409
S'Inn'
p410
aS'Inn'
p411
as(g149
g49
tp412
(lp413
g188
as(g105
S'Nicholas'
p414
tp415
(lp416
S'Arms'
p417
as(g67
g321
tp418
(lp419
S'END'
p420
as(S'NOW'
p421
g151
tp422
(lp423
S'Inn'
p424
as(S'NOW'
p425
g167
tp426
(lp427
S'Head'
p428
as(g175
S'Gun'
p429
tp430
(lp431
S'END'
p432
as(g414
g417
tp433
(lp434
S'END'
p435
as(S'NOW'
p436
g163
tp437
(lp438
g218
as(S'Trading'
p439
S'Co'
p440
tp441
(lp442
S'END'
p443
as(g14
g17
tp444
(lp445
S'END'
p446
as(g391
g439
tp447
(lp448
g440
as(S'NOW'
p449
g99
tp450
(lp451
S'END'
p452
aS'END'
p453
aS'END'
p454
as(S'NOW'
p455
g150
tp456
(lp457
g342
as(g170
S'Inn'
p458
tp459
(lp460
S'END'
p461
as(g171
S'Inn'
p462
tp463
(lp464
S'END'
p465
as(g96
g211
tp466
(lp467
S'END'
p468
aS'END'
p469
as(S'NOW'
p470
g78
tp471
(lp472
g79
as(g91
g225
tp473
(lp474
g226
ag226
ag226
ag226
ag226
ag226
ag226
ag226
as(g132
g391
tp475
(lp476
g439
as(g168
g329
tp477
(lp478
S'END'
p479
as(g147
g175
tp480
(lp481
g429
as(S'NOW'
p482
g153
tp483
(lp484
g204
as(g104
g372
tp485
(lp486
S'END'
p487
as(S'NOW'
p488
g171
tp489
(lp490
g462
as(g175
g276
tp491
(lp492
S'END'
p493
aS'END'
p494
aS'END'
p495
as(S'NOW'
p496
g105
tp497
(lp498
g414
as(S'NOW'
p499
g118
tp500
(lp501
g397
as(S'NOW'
p502
g103
tp503
(lp504
S'Arms'
p505
as(S'NOW'
p506
g170
tp507
(lp508
g458
as(S'NOW'
p509
g68
tp510
(lp511
g69
as(g29
g32
tp512
(lp513
S'END'
p514
as(S'NOW'
p515
g146
tp516
(lp517
g244
aS'Head'
p518
as(S'NOW'
p519
g1
tp520
(lp521
g2
as(g218
g221
tp522
(lp523
S'END'
p524
as(g7
g10
tp525
(lp526
g401
aS'Inn'
p527
aS'Inn'
p528
as(g151
g424
tp529
(lp530
S'END'
p531
as(g102
g410
tp532
(lp533
S'END'
p534
aS'END'
p535
as(g19
g22
tp536
(lp537
S'END'
p538
as(g167
g428
tp539
(lp540
S'END'
p541
as(g103
g505
tp542
(lp543
S'END'
p544
as.