(dp0
(S'dont'
p1
S'match'
p2
tp3
(lp4
S'colors.'
p5
as(S'YOUR'
p6
S'DOGS'
p7
tp8
(lp9
S'LETS'
p10
as(S'grew'
p11
S'up'
p12
tp13
(lp14
S'with'
p15
as(S'to'
p16
S'fix'
p17
tp18
(lp19
S'my'
p20
as(S'to'
p21
S'order'
p22
tp23
(lp24
S'parts'
p25
as(S'NOW'
p26
S'THANKS,'
p27
tp28
(lp29
S'I'
p30
as(S'is'
p31
S'just'
p32
tp33
(lp34
S'a'
p35
as(S'IF'
p36
S'YOU'
p37
tp38
(lp39
S'HAD'
p40
as(S'YOU'
p41
S'MEAN'
p42
tp43
(lp44
S'YOU\xe2\x80\x99RE'
p45
as(S'my'
p46
S'ankles'
p47
tp48
(lp49
g31
as(S'PARK'
p50
S'BRING'
p51
tp52
(lp53
g6
as(g30
S"don't"
p54
tp55
(lp56
S'believe'
p57
as(g30
S'wouldn\xe2\x80\x99t'
p58
tp59
(lp60
S'realize.'
p61
as(S'NOW'
p62
S'This'
p63
tp64
(lp65
S'is'
p66
aS'article'
p67
aS'song'
p68
as(S'NOW'
p69
S'SOVEREIGN'
p70
tp71
(lp72
S'RINGS'
p73
as(S'than'
p74
S'cool.'
p75
tp76
(lp77
S'END'
p78
as(S'HAVE'
p79
S'A'
p80
tp81
(lp82
S'GENRE,'
p83
as(S'party'
p84
S'was'
p85
tp86
(lp87
S'too'
p88
as(S'NOW'
p89
S'The'
p90
tp91
(lp92
S'radio'
p93
as(S'THIS'
p94
S'VEGAN?'
p95
tp96
(lp97
S'END'
p98
as(S'about'
p99
S'that?'
p100
tp101
(lp102
S'END'
p103
as(S'AS'
p104
S'ALL'
p105
tp106
(lp107
S'THE'
p108
as(S'was'
p109
S'lit'
p110
tp111
(lp112
S'af.'
p113
as(S'TIME'
p114
g30
tp115
(lp116
S'WATCHED'
p117
as(S'not'
p118
S'sorry'
p119
tp120
(lp121
S'END'
p122
as(S'in'
p123
S'an'
p124
tp125
(lp126
S'uber'
p127
as(S'Ross'
p128
S'and'
p129
tp130
(lp131
S'Rachel.'
p132
as(g30
S'GOT'
p133
tp134
(lp135
S'DONNIE'
p136
as(S'still'
p137
S'in'
p138
tp139
(lp140
S'beta.'
p141
as(S"I'm"
p142
S'nowhere'
p143
tp144
(lp145
S'close'
p146
as(S'that'
p147
S'are'
p148
tp149
(lp150
g137
as(S'ice'
p151
S'cream'
p152
tp153
(lp154
S'vegan?'
p155
as(S'one'
p156
S'ever.'
p157
tp158
(lp159
S'END'
p160
as(S'SAME'
p161
g104
tp162
(lp163
g105
as(g80
S'HOT'
p164
tp165
(lp166
S'DOG'
p167
as(S'you'
p168
S"can't"
p169
tp170
(lp171
S'even'
p172
as(S'mainstream'
p173
S'award?'
p174
tp175
(lp176
S'END'
p177
as(S'This'
p178
g68
tp179
(lp180
S'is'
p181
as(g83
S'BUT'
p182
tp183
(lp184
S'IF'
p185
as(S'SOME'
p186
S'TIME'
p187
tp188
(lp189
S'OFF'
p190
as(g30
S'thought'
p191
tp192
(lp193
S"I'd"
p194
as(S'MUSIC'
p195
S'DOESN\xe2\x80\x99T'
p196
tp197
(lp198
S'REALLY'
p199
as(S'single'
p200
S'is'
p201
tp202
(lp203
S'the'
p204
as(S'sorry'
p205
g118
tp206
(lp207
g119
as(g63
g66
tp208
(lp209
S'the'
p210
as(S'NOW'
p211
S'Should'
p212
tp213
(lp214
g30
as(S'NOW'
p215
S'Stop'
p216
tp217
(lp218
S'it'
p219
as(S'brunch'
p220
S'spot'
p221
tp222
(lp223
S'in'
p224
as(S'KAFKA'
p225
S'UNTIL'
p226
tp227
(lp228
S'YOU'
p229
as(S'can'
p230
S'never'
p231
tp232
(lp233
S'be'
p234
as(S'OF'
p235
S'HER'
p236
tp237
(lp238
S'GENERATION'
p239
as(S'WANT'
p240
S'TO'
p241
tp242
(lp243
S'BE'
p244
as(S'of'
p245
S'the'
p246
tp247
(lp248
S'decade.'
p249
as(g57
S'in'
p250
tp251
(lp252
S'labels'
p253
as(S'OF'
p254
S'IT.'
p255
tp256
(lp257
S'END'
p258
as(S'CAN'
p259
S'YOU'
p260
tp261
(lp262
S'CALL'
p263
aS'NOT?!'
p264
as(S'store'
p265
S'across'
p266
tp267
(lp268
S'town'
p269
as(g108
S'DIFFERENT'
p270
tp271
(lp272
S'PEOPLE.'
p273
as(g58
g61
tp274
(lp275
S'END'
p276
as(g40
S'TO'
p277
tp278
(lp279
S'LABEL'
p280
aS'DEFINE'
p281
as(S'the'
p282
S'square,'
p283
tp284
(lp285
S'and'
p286
as(S'NOW'
p287
S'Really'
p288
tp289
(lp290
S'tho.'
p291
as(S'of'
p292
S'them.'
p293
tp294
(lp295
S'END'
p296
as(S'Colors'
p297
S'match'
p298
tp299
(lp300
S'themselves.'
p301
as(g185
g30
tp302
(lp303
S'HAD'
p304
as(S'at'
p305
g35
tp306
(lp307
S'thrift'
p308
as(S'pant'
p309
S'legs'
p310
tp311
(lp312
S'to'
p313
as(S'last'
p314
S'night!'
p315
tp316
(lp317
S'END'
p318
as(g80
S'SELLOUT.'
p319
tp320
(lp321
S'END'
p322
as(S'They'
p323
S'only'
p324
tp325
(lp326
S'take'
p327
as(g35
S'band?'
p328
tp329
(lp330
S'END'
p331
as(S'Yeah'
p332
g30
tp333
(lp334
S'totally'
p335
as(S'city,'
p336
g168
tp337
(lp338
g169
as(S'get'
p339
S'there'
p340
tp341
(lp342
S'on'
p343
as(S'the'
p344
S'Twenty-Something'
p345
tp346
(lp347
S'Teenage'
p348
as(S'except'
p349
S'I\xe2\x80\x99m'
p350
tp351
(lp352
S'calling'
p353
as(S'AT'
p354
S'THE'
p355
tp356
(lp357
S'MOMENT'
p358
ag50
as(S'My'
p359
S'friend'
p360
tp361
(lp362
S'used'
p363
as(S'\xe2\x80\xa6AND'
p364
S'THIS'
p365
tp366
(lp367
S'IS'
p368
as(g280
S'ME,'
p369
tp370
(lp371
g30
as(S'the'
p372
S'remix'
p373
tp374
(lp375
S'better'
p376
as(S'OF'
p377
S'TAKING'
p378
tp379
(lp380
g186
as(S'COLOMBIAN'
p381
S'GARMENT.'
p382
tp383
(lp384
S'END'
p385
as(g30
S'only'
p386
tp387
(lp388
S'like'
p389
aS'use'
p390
as(g210
S'most'
p391
tp392
(lp393
S'important'
p394
as(S'heard'
p395
S'their'
p396
tp397
(lp398
S'side'
p399
as(S'INTO'
p400
S'LITTLE'
p401
tp402
(lp403
S'BOXES.'
p404
as(g30
g117
tp405
(lp406
S'IT.'
p407
as(S'this'
p408
g151
tp409
(lp410
g152
as(g224
S'the'
p411
tp412
(lp413
g336
as(S'THE'
p414
g161
tp415
(lp416
g104
as(S'BET'
p417
S'HIS'
p418
tp419
(lp420
S'AFRO'
p421
as(S'She\xe2\x80\x99s'
p422
S'hella'
p423
tp424
(lp425
S'basic.'
p426
as(S'REY'
p427
S'IS'
p428
tp429
(lp430
S'ONE'
p431
as(S'OF'
p432
S'WANT'
p433
tp434
(lp435
g80
as(S'MAKING'
p436
S'SOME'
p437
tp438
(lp439
S'SERIOUS'
p440
aS'SERIOUS'
p441
as(S'THEM'
p442
S'IN'
p443
tp444
(lp445
S'THIS'
p446
as(S'pop'
p447
S'ups'
p448
tp449
(lp450
S'and'
p451
as(S'NOW'
p452
S'Those'
p453
tp454
(lp455
S'tacos'
p456
as(g30
S'SAW'
p457
tp458
(lp459
g442
as(S'their'
p460
S'early'
p461
tp462
(lp463
S'stuff.'
p464
as(g386
g389
tp465
(lp466
g460
as(S'me'
p467
S'life!'
p468
tp469
(lp470
S'YAS!'
p471
as(S'heard'
p472
g292
tp473
(lp474
g293
as(S'WORKING'
p475
S'ON'
p476
tp477
(lp478
S'MY'
p479
as(S'THE'
p480
S'RIGHT'
p481
tp482
(lp483
S'PLACES.'
p484
as(g378
g186
tp485
(lp486
g187
as(S"didn't"
p487
S'post'
p488
tp489
(lp490
S'so'
p491
as(S'She'
p492
S'threw'
p493
tp494
(lp495
S'shade'
p496
as(S'CAN\xe2\x80\x99T'
p497
S'BEGIN'
p498
tp499
(lp500
S'TO'
p501
as(S'IT\xe2\x80\x99S'
p502
S'FROM'
p503
tp504
(lp505
S'THE'
p506
as(g30
S'know,'
p507
tp508
(lp509
S'right?'
p510
as(S'NOW'
p511
S'Have'
p512
tp513
(lp514
S'you'
p515
as(g187
g190
tp516
(lp517
S'TO'
p518
as(S'ARE'
p519
S'SO'
p520
tp521
(lp522
S'CLICH\xc3\x89-CHIC.'
p523
as(g246
g249
tp524
(lp525
S'END'
p526
as(S'beanie'
p527
g230
tp528
(lp529
g231
as(S'LEATHER'
p530
S'IPHONE'
p531
tp532
(lp533
S'PURSES?'
p534
as(S'\xe2\x80\x98ORGANIC'
p535
S'GARAGE\xe2\x80\x99.'
p536
tp537
(lp538
S'END'
p539
as(g491
S'many'
p540
tp541
(lp542
S'selfies.'
p543
as(S'like'
p544
S'i'
p545
tp546
(lp547
S'have'
p548
as(S'went'
p549
S'to'
p550
tp551
(lp552
S'shit'
p553
as(g196
g199
tp554
(lp555
g79
as(S'WHAT\xe2\x80\x99S'
p556
S'YOUR'
p557
tp558
(lp559
S'INSTAGRAM'
p560
as(S'went'
p561
S'brick'
p562
tp563
(lp564
S'and'
p565
as(S'favorite'
p566
S'ship'
p567
tp568
(lp569
S'is'
p570
as(g365
g368
tp571
(lp572
S'MY'
p573
aS'DEFINITELY'
p574
as(S'my'
p575
S'life?'
p576
tp577
(lp578
S'END'
p579
as(S'Piper'
p580
S'and'
p581
tp582
(lp583
S'Alex!'
p584
as(S'AND'
p585
g475
tp586
(lp587
g476
as(S'READ'
p588
S'HIM'
p589
tp590
(lp591
S'IN'
p592
as(S'totally'
p593
S'ship'
p594
tp595
(lp596
g580
as(S'NOW'
p597
S'Said'
p598
tp599
(lp600
S'no'
p601
as(S'my'
p602
S'ish'
p603
tp604
(lp605
S'END'
p606
as(S'GUESS'
p607
S'YOU'
p608
tp609
(lp610
S'COULD'
p611
as(g345
g348
tp612
(lp613
S'Soul.\xe2\x80\x9d'
p614
as(S'good'
p615
S'AF.'
p616
tp617
(lp618
S'END'
p619
as(g456
S'were'
p620
tp621
(lp622
g615
as(g350
g353
tp623
(lp624
S'it'
p625
as(S'I\xe2\x80\x99M'
p626
S'PLANNING'
p627
tp628
(lp629
S'ON'
p630
as(S'be'
p631
S'dead'
p632
tp633
(lp634
g74
as(S"i'm"
p635
g123
tp636
(lp637
g124
as(S'ruined'
p638
S'that'
p639
tp640
(lp641
S'song'
p642
as(g68
g181
tp643
(lp644
S'giving'
p645
as(S'SHE\xe2\x80\x99S'
p646
g436
tp647
(lp648
g437
aS'SOME'
p649
as(g191
g194
tp650
(lp651
S'be'
p652
as(S'NOW'
p653
S'SOMEONE'
p654
tp655
(lp656
S'REALLY'
p657
as(S'NEEDS'
p658
S'TO'
p659
tp660
(lp661
S'INVENT'
p662
as(S'you'
p663
S'see'
p664
tp665
(lp666
S'his'
p667
as(g164
g167
tp668
(lp669
S'END'
p670
as(g488
g491
tp671
(lp672
g540
as(S'leggings.'
p673
g422
tp674
(lp675
g423
as(g396
g399
tp676
(lp677
S'project?'
p678
as(S'on'
p679
S'all'
p680
tp681
(lp682
S'occasions'
p683
as(S'TALK'
p684
S'ABOUT'
p685
tp686
(lp687
S'TATTOOS'
p688
as(g639
g642
tp689
(lp690
S'END'
p691
as(g138
g141
tp692
(lp693
S'END'
p694
as(S'struggle'
p695
S'bus'
p696
tp697
(lp698
S'is'
p699
as(S'worst'
p700
S'song'
p701
tp702
(lp703
S'on'
p704
as(S'NOW'
p705
S'Do'
p706
tp707
(lp708
S'you'
p709
as(S'so'
p710
S'much'
p711
tp712
(lp713
S'more'
p714
as(g27
g30
tp715
(lp716
S'WOVE'
p717
as(g520
g523
tp718
(lp719
S'END'
p720
as(g503
g506
tp721
(lp722
S'ORGANIC'
p723
as(g557
g560
tp724
(lp725
S'HANDLE?'
p726
as(g355
g358
tp727
(lp728
S'I\xe2\x80\x99M'
p729
as(g30
S'got'
p730
tp731
(lp732
S'so'
p733
as(S'YOU'
p734
g497
tp735
(lp736
g498
aS'JUST'
p737
as(S'HEMP'
p738
S'INDUSTRY.'
p739
tp740
(lp741
S'END'
p742
aS'END'
p743
as(S'SOUND'
p744
S'SO'
p745
tp746
(lp747
S'MUCH'
p748
as(S'NOW'
p749
S'Karen'
p750
tp751
(lp752
S'only'
p753
as(g685
g688
tp754
(lp755
S'END'
p756
as(S'NOW'
p757
S'Hey'
p758
tp759
(lp760
S'want'
p761
as(g717
S'IT'
p762
tp763
(lp764
S'MYSELF.'
p765
as(S'CALL'
p766
S'ME\xe2\x80\xa6'
p767
tp768
(lp769
S'REAL.'
p770
as(g340
g343
tp771
(lp772
S'the'
p773
as(S'I\xe2\x80\x99M'
p774
S'THINKING'
p775
tp776
(lp777
g377
as(S'LABELS.'
p778
g30
tp779
(lp780
S'DON\xe2\x80\x99T'
p781
as(g652
S'at'
p782
tp783
(lp784
S'this'
p785
as(S'Kids'
p786
S'on'
p787
tp788
(lp789
S'the'
p790
as(g453
g456
tp791
(lp792
g620
as(S'TO'
p793
S'OPEN'
p794
tp795
(lp796
S'MY'
p797
as(S'THE'
p798
g738
tp799
(lp800
g739
aS'INDUSTRY.'
p801
as(S'I\xe2\x80\x99M'
p802
S'KNITTING'
p803
tp804
(lp805
g80
as(S'at'
p806
S'me'
p807
tp808
(lp809
S'in'
p810
as(S'up'
p811
S'my'
p812
tp813
(lp814
g309
as(g30
g1
tp815
(lp816
g2
as(g553
S'when'
p817
tp818
(lp819
S'they'
p820
as(S'their'
p821
S'food'
p822
tp823
(lp824
g549
as(S'are'
p825
S'you'
p826
tp827
(lp828
S'again?'
p829
aS'sure'
p830
as(g773
S'bus.'
p831
tp832
(lp833
S'END'
p834
as(S'NOW'
p835
S'are'
p836
tp837
(lp838
S'you'
p839
as(g360
g363
tp840
(lp841
S'to'
p842
as(g129
g132
tp843
(lp844
S'END'
p845
as(S'FIRST'
p846
g114
tp847
(lp848
g30
as(S'ON'
p849
S'MY'
p850
tp851
(lp852
S'SOLO'
p853
aS'NOVEL.'
p854
as(g750
g753
tp855
(lp856
S'wears'
p857
as(S'NOW'
p858
S'MY'
p859
tp860
(lp861
g195
as(S'NOW'
p862
g774
tp863
(lp864
g775
as(S'to'
p865
S'come'
p866
tp867
(lp868
S'to'
p869
as(S'NOW'
p870
S'LANA'
p871
tp872
(lp873
S'DEL'
p874
as(S'how'
p875
S'do'
p876
tp877
(lp878
S'you'
p879
as(S'up'
p880
S'for'
p881
tp882
(lp883
S'Greenpeace.'
p884
as(g853
S'STUFF.'
p885
tp886
(lp887
S'END'
p888
as(S'FOR'
p889
S'FALL'
p890
tp891
(lp892
S'END'
p893
as(S'think'
p894
S'rolling'
p895
tp896
(lp897
g811
as(g10
g684
tp898
(lp899
g685
as(g545
S"can't,"
p900
tp901
(lp902
g635
as(S'THAT'
p903
g80
tp904
(lp905
S'FEDORA?'
p906
as(g531
g534
tp907
(lp908
S'END'
p909
as(g148
g137
tp910
(lp911
g138
as(S'LAST'
p912
S'YEAR.'
p913
tp914
(lp915
S'END'
p916
as(S'EVEN'
p917
S'IRONIC.'
p918
tp919
(lp920
S'END'
p921
as(g423
g426
tp922
(lp923
S'END'
p924
as(S'BUT'
p925
S'IT\xe2\x80\x99S'
p926
tp927
(lp928
S'JUST'
p929
as(S'GET'
p930
S'THEM'
p931
tp932
(lp933
S'ANYWHERE,'
p934
as(S'This'
p935
g67
tp936
(lp937
S'doe.'
p938
as(g204
g700
tp939
(lp940
g701
as(S'and'
p941
g673
tp942
(lp943
g422
as(g446
S'REALLY'
p944
tp945
(lp946
S'SMALL'
p947
as(g80
S'COVER'
p948
tp949
(lp950
S'FOR'
p951
as(S'play'
p952
g349
tp953
(lp954
g350
as(g699
S'vintage'
p955
tp956
(lp957
S'END'
p958
as(g584
S'My'
p959
tp960
(lp961
S'all-time'
p962
as(g236
g239
tp963
(lp964
S'END'
p965
as(S'book'
p966
S'called'
p967
tp968
(lp969
S'\xe2\x80\x9cChicken'
p970
as(g30
S'like'
p971
tp972
(lp973
g372
as(S'always'
p974
S'have'
p975
tp976
(lp977
S'my'
p978
as(g620
g615
tp979
(lp980
g616
as(S'Did'
p981
g663
tp982
(lp983
g664
as(S'THE'
p984
g846
tp985
(lp986
g114
as(g327
S'cash.'
p987
tp988
(lp989
S'END'
p990
as(S'square'
p991
S'to'
p992
tp993
(lp994
S'the'
p995
as(S'UGH\xe2\x80\xa6'
p996
S'ARIAL.'
p997
tp998
(lp999
S'END'
p1000
as(g440
S'WAVES'
p1001
tp1002
(lp1003
S'IN'
p1004
aS'IN'
p1005
as(g545
S'got'
p1006
tp1007
(lp1008
S'it'
p1009
as(g567
g570
tp1010
(lp1011
g128
as(S'Literally'
p1012
S'dying.'
p1013
tp1014
(lp1015
S'END'
p1016
as(S'MEETS'
p1017
S'WEEZER?'
p1018
tp1019
(lp1020
g925
as(g550
g553
tp1021
(lp1022
g817
as(g931
g934
tp1023
(lp1024
S'YOU'
p1025
as(S'NOW'
p1026
g332
tp1027
(lp1028
g30
as(g80
S'MOUSTACHE-FRIENDLY'
p1029
tp1030
(lp1031
S'HARMONICA.'
p1032
as(S'good'
p1033
S'live.'
p1034
tp1035
(lp1036
S'END'
p1037
as(S'artist'
p1038
S'is'
p1039
tp1040
(lp1041
S'nominated'
p1042
as(g479
g854
tp1043
(lp1044
S'END'
p1045
as(g632
g74
tp1046
(lp1047
g75
as(S"let's"
p1048
S'do'
p1049
tp1050
(lp1051
S'brunch.'
p1052
as(g826
g829
tp1053
(lp1054
S'END'
p1055
as(S'sign'
p1056
g880
tp1057
(lp1058
g881
as(S'WHAT'
p1059
S'DOES'
p1060
tp1061
(lp1062
S'YOUR'
p1063
as(g574
S'GOING'
p1064
tp1065
(lp1066
S'INTO'
p1067
as(S'I\xe2\x80\x99m'
p1068
S'writing'
p1069
tp1070
(lp1071
g35
as(S'OWN'
p1072
S'GLUTEN-FREE'
p1073
tp1074
(lp1075
S'BAKERY,'
p1076
as(S'NOW'
p1077
S'IT\xe2\x80\x99S'
p1078
tp1079
(lp1080
S'NOT'
p1081
aS'KIND'
p1082
ag503
as(S'of'
p1083
S'everyone'
p1084
tp1085
(lp1086
S'and'
p1087
as(S'YOU\xe2\x80\x99VE'
p1088
S'PROBABLY'
p1089
tp1090
(lp1091
S'NEVER'
p1092
as(g216
g219
tp1093
(lp1094
S'right'
p1095
as(S'JUST'
p1096
S'KIND'
p1097
tp1098
(lp1099
S'OF'
p1100
as(g67
g938
tp1101
(lp1102
S'END'
p1103
as(S'It\xe2\x80\x99s'
p1104
S'hella'
p1105
tp1106
(lp1107
S'hot'
p1108
as(S'if'
p1109
S'he'
p1110
tp1111
(lp1112
g487
as(S'far'
p1113
S'back'
p1114
tp1115
(lp1116
S'on'
p1117
as(S'CANT'
p1118
S'EVEN'
p1119
tp1120
(lp1121
S'END'
p1122
as(g797
g1072
tp1123
(lp1124
g1073
as(S'LEAVING'
p1125
S'MY'
p1126
tp1127
(lp1128
S'BODY'
p1129
as(g790
S'Youtube,'
p1130
tp1131
(lp1132
S'learning'
p1133
as(g944
g947
tp1134
(lp1135
S'VENUE'
p1136
as(S'NOW'
p1137
S'best'
p1138
tp1139
(lp1140
g220
as(g581
g584
tp1141
(lp1142
g959
as(S'STALL'
p1143
S'ON'
p1144
tp1145
(lp1146
S'CHAMBERS'
p1147
as(S'would'
p1148
g1056
tp1149
(lp1150
g880
as(g335
g1148
tp1151
(lp1152
g1056
as(S'FULLY'
p1153
S'APPRECIATE'
p1154
tp1155
(lp1156
g225
as(S'Their'
p1157
g200
tp1158
(lp1159
g201
as(g1092
S'HEARD'
p1160
tp1161
(lp1162
g254
as(S'to'
p1163
S'where'
p1164
tp1165
(lp1166
g30
as(S'NOW'
p1167
g259
tp1168
(lp1169
g260
aS'YOU'
p1170
as(S'IS'
p1171
S'THAT'
p1172
tp1173
(lp1174
S'FAIR'
p1175
as(S'NOW'
p1176
S'my'
p1177
tp1178
(lp1179
g695
as(g518
S'WORK'
p1180
tp1181
(lp1182
g849
as(S'THE'
p1183
g50
tp1184
(lp1185
g51
as(g1039
g1042
tp1186
(lp1187
S'for'
p1188
as(g5
g297
tp1189
(lp1190
g298
as(S'TATTOO'
p1191
S'MEAN?'
p1192
tp1193
(lp1194
S'END'
p1195
as(g1067
S'MY'
p1196
tp1197
(lp1198
S'BLOG.'
p1199
as(g1025
S'NEED'
p1200
tp1201
(lp1202
S'TO'
p1203
as(S'IT\xe2\x80\x99S'
p1204
g1082
tp1205
(lp1206
S'OF'
p1207
as(g288
g291
tp1208
(lp1209
S'END'
p1210
as(S'that\xe2\x80\x99s'
p1211
S'my'
p1212
tp1213
(lp1214
S'vocation.'
p1215
as(S'thought'
p1216
g30
tp1217
(lp1218
g58
as(g592
S'GERMAN.'
p1219
tp1220
(lp1221
S'END'
p1222
as(S'THE'
p1223
S'BEST'
p1224
tp1225
(lp1226
S'MUSICAL'
p1227
as(g35
g308
tp1228
(lp1229
g265
as(S'NOW'
p1230
g30
tp1231
(lp1232
S'HATE'
p1233
ag240
aS'HEARD'
p1234
ag133
ag457
ag417
aS'was'
p1235
ag971
ag386
ag11
ag1
ag894
aS'HEARD'
p1236
ag54
ag1118
aS'KIND'
p1237
ag507
ag593
as(g866
g869
tp1238
(lp1239
S'my'
p1240
as(S'NOW'
p1241
S'WHAT'
p1242
tp1243
(lp1244
S'DO'
p1245
ag1060
as(S'NOW'
p1246
g786
tp1247
(lp1248
g787
as(g496
g806
tp1249
(lp1250
g807
as(S'He'
p1251
g109
tp1252
(lp1253
g110
as(g970
S'Soup'
p1254
tp1255
(lp1256
S'for'
p1257
as(g900
g635
tp1258
(lp1259
g123
as(S'probably'
p1260
S'never'
p1261
tp1262
(lp1263
g472
as(g169
g172
tp1264
(lp1265
g339
as(S'NOW'
p1266
S'Srsly?'
p1267
tp1268
(lp1269
S'END'
p1270
as(S'IS'
p1271
g574
tp1272
(lp1273
g1064
as(g80
g906
tp1274
(lp1275
S'END'
p1276
as(g30
S'doing'
p1277
tp1278
(lp1279
S'with'
p1280
as(g30
g1118
tp1281
(lp1282
g1119
as(S'NOW'
p1283
g142
tp1284
(lp1285
g143
as(g30
g1234
tp1286
(lp1287
g646
aS'SHE\xe2\x80\x99S'
p1288
as(g221
g224
tp1289
(lp1290
g411
as(g348
g614
tp1291
(lp1292
S'END'
p1293
as(g1089
g1092
tp1294
(lp1295
g1160
as(S'actually'
p1296
S'not'
p1297
tp1298
(lp1299
S'that'
p1300
as(S'PROBABLY'
p1301
S'SAY'
p1302
tp1303
(lp1304
g535
as(S'Dude,'
p1305
g30
tp1306
(lp1307
g730
as(g1129
S'TO'
p1308
tp1309
(lp1310
S'ART.'
p1311
as(S'NOW'
p1312
S'THIS'
p1313
tp1314
(lp1315
g1271
as(g30
g894
tp1316
(lp1317
g895
as(g506
g723
tp1318
(lp1319
S'FRUIT'
p1320
as(S'labor'
p1321
S'clothing'
p1322
tp1323
(lp1324
S'is'
p1325
as(g353
g625
tp1326
(lp1327
g35
as(g35
g966
tp1328
(lp1329
g967
as(S'would'
p1330
S'be'
p1331
tp1332
(lp1333
g710
as(S'You'
p1334
g974
tp1335
(lp1336
g975
as(S'NOW'
p1337
S'Srsly.'
p1338
tp1339
(lp1340
S'END'
p1341
as(S'BETTER'
p1342
S'ON'
p1343
tp1344
(lp1345
S'VINYL.'
p1346
as(g35
S'mainstream'
p1347
tp1348
(lp1349
g1038
ag174
as(g201
g204
tp1350
(lp1351
g700
ag391
as(g1117
S'your'
p1352
tp1353
(lp1354
S'head'
p1355
as(g283
g286
tp1356
(lp1357
g991
as(g30
g11
tp1358
(lp1359
g12
as(S'KNOW'
p1360
g480
tp1361
(lp1362
g481
as(g373
g376
tp1363
(lp1364
S'END'
p1365
as(g54
g57
tp1366
(lp1367
g250
as(g696
g699
tp1368
(lp1369
g955
as(g1347
g1038
tp1370
(lp1371
g1039
as(S'NOW'
p1372
g821
tp1373
(lp1374
g822
as(g172
g339
tp1375
(lp1376
g340
as(g286
g991
tp1377
(lp1378
g992
as(g627
g630
tp1379
(lp1380
S'MOVING'
p1381
as(S'ME'
p1382
S'BACK?'
p1383
tp1384
(lp1385
g802
as(g234
S'too'
p1386
tp1387
(lp1388
g1113
as(g830
g99
tp1389
(lp1390
g100
as(S'100%'
p1391
S'non-chinese'
p1392
tp1393
(lp1394
S'child'
p1395
as(g298
g301
tp1396
(lp1397
S'END'
p1398
as(S'when'
p1399
g35
tp1400
(lp1401
g1347
as(g263
g1382
tp1402
(lp1403
g1383
as(g199
g79
tp1404
(lp1405
g80
as(g589
g592
tp1406
(lp1407
g1219
as(g1170
g264
tp1408
(lp1409
S'END'
p1410
as(g657
g658
tp1411
(lp1412
g659
as(g1130
g1133
tp1413
(lp1414
S'how'
p1415
as(g812
g309
tp1416
(lp1417
g310
as(S'IS'
p1418
g94
tp1419
(lp1420
g95
as(g1138
g220
tp1421
(lp1422
g221
as(g1212
g1215
tp1423
(lp1424
S'END'
p1425
as(g369
g30
tp1426
(lp1427
g607
as(g540
g543
tp1428
(lp1429
S'END'
p1430
as(g80
S'UKULELE'
p1431
tp1432
(lp1433
S'END'
p1434
as(g310
g313
tp1435
(lp1436
g46
as(g30
g1233
tp1437
(lp1438
g778
as(g1302
g535
tp1439
(lp1440
g536
as(g959
g962
tp1441
(lp1442
g566
as(S'NOW'
p1443
S'Your'
p1444
tp1445
(lp1446
g527
as(g967
g970
tp1447
(lp1448
g1254
as(g1297
g1300
tp1449
(lp1450
g1033
as(g457
g442
tp1451
(lp1452
g443
as(S'date'
p1453
S'the'
p1454
tp1455
(lp1456
S'lead'
p1457
as(g729
g1096
tp1458
(lp1459
g1097
as(S'excited'
p1460
g1399
tp1461
(lp1462
g35
as(g859
g195
tp1463
(lp1464
g196
as(S'STREET.'
p1465
g1088
tp1466
(lp1467
g1089
as(S'NOW'
p1468
g544
tp1469
(lp1470
g545
as(g1331
g710
tp1471
(lp1472
g711
as(S"it's"
p1473
S'fair'
p1474
tp1475
(lp1476
S'trade?'
p1477
as(S'from'
p1478
S'europe'
p1479
tp1480
(lp1481
g16
as(S'is'
p1482
g408
tp1483
(lp1484
g151
as(g1474
g1477
tp1485
(lp1486
S'END'
p1487
as(g881
g884
tp1488
(lp1489
S'END'
p1490
as(S'SCARF.'
p1491
S'IT\xe2\x80\x99S'
p1492
tp1493
(lp1494
g80
as(g437
g440
tp1495
(lp1496
g1001
aS'WAVES'
p1497
as(S'BON'
p1498
S'IVER'
p1499
tp1500
(lp1501
S'IS'
p1502
as(g1203
g1360
tp1503
(lp1504
g480
as(S'NOW'
p1505
g1305
tp1506
(lp1507
g30
as(g1444
g527
tp1508
(lp1509
g230
as(g30
g335
tp1510
(lp1511
g1148
ag594
as(g1454
g1457
tp1512
(lp1513
S'singer.'
p1514
as(g498
g501
tp1515
(lp1516
g1153
as(S'OF'
p1517
g1223
tp1518
(lp1519
g1224
as(g143
g146
tp1520
(lp1521
g1163
as(g1261
g472
tp1522
(lp1523
g292
as(g250
g253
tp1524
(lp1525
S'END'
p1526
as(S'like,'
p1527
S'two'
p1528
tp1529
(lp1530
S'years'
p1531
as(S'TO'
p1532
S'PUT'
p1533
tp1534
(lp1535
S'EVERYTHING'
p1536
as(g850
g853
tp1537
(lp1538
g885
as(g1108
S'outside'
p1539
tp1540
(lp1541
S'today.'
p1542
as(S'BEGIN'
p1543
g1230
tp1544
(lp1545
g30
ag30
ag871
ag1418
ag734
ag1078
aS'THEY'
p1546
aS'WHEN'
p1547
ag259
ag859
ag556
ag1204
ag30
aS'WELL'
p1548
ag364
ag1171
ag30
ag654
ag30
ag502
ag774
ag27
ag70
ag1498
ag996
ag30
ag1313
ag1242
aS'YOU'
p1549
aS'WELL'
p1550
ag758
ag1068
ag212
ag786
aS'Rather'
p1551
aS'I\xe2\x80\x99m'
p1552
aS"They're"
p1553
ag30
ag30
ag512
ag1157
ag63
ag359
ag30
ag90
ag30
ag1444
ag30
ag30
ag332
ag1391
aS'Who'
p1554
ag30
aS'Sorry,'
p1555
ag30
aS'IS'
p1556
aS'CAN'
p1557
aS'VEGAN'
p1558
aS'LOL'
p1559
ag30
ag30
aS'IM'
p1560
aS'YOU'
p1561
ag1059
aS'MEET'
p1562
ag544
ag205
ag1177
ag545
ag545
aS'but'
p1563
ag1482
ag836
aS"you've"
p1564
ag545
ag821
aS'Because'
p1565
ag216
ag288
ag598
aS'Wait'
p1566
ag1012
ag1338
ag1267
aS'#THIS'
p1567
aS'My'
p1568
ag706
ag323
ag30
aS'Totes.'
p1569
aS'he'
p1570
ag142
ag1305
ag935
aS'That'
p1571
ag1104
ag750
ag492
ag178
ag30
ag453
ag981
ag1334
ag1048
ag1138
ag545
as(g1415
S'to'
p1572
tp1573
(lp1574
S'be'
p1575
as(g1100
S'LAYING'
p1576
tp1577
(lp1578
S'LOW'
p1579
as(S'am'
p1580
g30
tp1581
(lp1582
g1277
as(S'HAVING'
p1583
g1532
tp1584
(lp1585
g1533
as(S'NOW'
p1586
g1560
tp1587
(lp1588
S'SO'
p1589
as(g501
g1153
tp1590
(lp1591
g1154
as(g706
g709
tp1592
(lp1593
S'have'
p1594
as(g30
S'DIE,'
p1595
tp1596
(lp1597
S'I\xe2\x80\x99M'
p1598
as(g1224
g1227
tp1599
(lp1600
S'EXPONENTS'
p1601
as(S'them'
p1602
g1527
tp1603
(lp1604
g1528
as(g667
S'eyes?'
p1605
tp1606
(lp1607
g1251
as(S'NOW'
p1608
g1418
tp1609
(lp1610
g94
ag1172
aS'IT'
p1611
as(S'NOW'
p1612
g1553
tp1613
(lp1614
g1296
as(g93
g638
tp1615
(lp1616
g639
as(g1561
S'GUYS!'
p1617
tp1618
(lp1619
S'END'
p1620
as(g1177
g695
tp1621
(lp1622
g696
as(g30
g304
tp1623
(lp1624
S'TO'
p1625
as(g1133
g1415
tp1626
(lp1627
g1572
as(S'TRADITIONAL'
p1628
g381
tp1629
(lp1630
g382
as(S'I\xe2\x80\x99D'
p1631
g1301
tp1632
(lp1633
g1302
as(g1110
g487
tp1634
(lp1635
g488
as(g1554
g825
tp1636
(lp1637
g826
as(g194
g652
tp1638
(lp1639
g782
as(g1147
g1465
tp1640
(lp1641
g1088
as(g1196
g1199
tp1642
(lp1643
S'END'
p1644
as(g1457
g1514
tp1645
(lp1646
S'END'
p1647
as(g22
g25
tp1648
(lp1649
g1478
as(g260
g263
tp1650
(lp1651
g1382
ag903
as(g1114
g1117
tp1652
(lp1653
g1352
as(S'GIRLFRIEND,'
p1654
S'RAINBOWE.'
p1655
tp1656
(lp1657
S'END'
p1658
as(g117
g407
tp1659
(lp1660
S'END'
p1661
as(g1352
g1355
tp1662
(lp1663
S'END'
p1664
as(g565
S'mortar.'
p1665
tp1666
(lp1667
S'END'
p1668
as(g88
S'turnt!'
p1669
tp1670
(lp1671
S'END'
p1672
as(g573
g1654
tp1673
(lp1674
g1655
as(g70
g73
tp1675
(lp1676
g519
as(g714
S'attractive'
p1677
tp1678
(lp1679
g1109
as(g664
g667
tp1680
(lp1681
g1605
as(g1536
g400
tp1682
(lp1683
g401
as(S'CAN\xe2\x80\x99T'
p1684
g737
tp1685
(lp1686
g930
as(g1560
g1589
tp1687
(lp1688
S'EXCITED'
p1689
as(g1069
g35
tp1690
(lp1691
g966
as(g1392
g1395
tp1692
(lp1693
g1321
as(g1242
g1245
tp1694
(lp1695
g41
as(g1042
g1188
tp1696
(lp1697
g35
as(g85
g88
tp1698
(lp1699
g1669
as(g481
g484
tp1700
(lp1701
S'END'
p1702
as(S'NOW'
p1703
g1565
tp1704
(lp1705
S'duh.'
p1706
as(S'beat,'
p1707
S'and'
p1708
tp1709
(lp1710
g1211
as(S'back,'
p1711
S'fam'
p1712
tp1713
(lp1714
S'END'
p1715
as(g781
S'LIKE'
p1716
tp1717
(lp1718
g1583
as(g1343
g1346
tp1719
(lp1720
S'END'
p1721
as(g389
g460
tp1722
(lp1723
g461
as(S'BONO'
p1724
g1017
tp1725
(lp1726
g1018
as(g879
S'know'
p1727
tp1728
(lp1729
g1473
as(g47
g31
tp1730
(lp1731
g32
as(S'only'
p1732
S'eat'
p1733
tp1734
(lp1735
S'at'
p1736
as(g1677
g1109
tp1737
(lp1738
g1110
as(g212
g30
tp1739
(lp1740
S'get'
p1741
as(S'NOW'
p1742
g1570
tp1743
(lp1744
g1330
as(S'EVEN'
p1745
S'ORGANIC?'
p1746
tp1747
(lp1748
S'END'
p1749
as(S'phone'
p1750
S'died.'
p1751
tp1752
(lp1753
S'END'
p1754
as(S'NOW'
p1755
g1558
tp1756
(lp1757
S'END'
p1758
as(g1575
S'cool.'
p1759
tp1760
(lp1761
S'END'
p1762
as(g51
g6
tp1763
(lp1764
g7
as(S'NOW'
p1765
g492
tp1766
(lp1767
g493
as(g1555
g30
tp1768
(lp1769
S'only'
p1770
as(S'but'
p1771
S'why?'
p1772
tp1773
(lp1774
S'END'
p1775
as(S'NOW'
p1776
g1571
tp1777
(lp1778
g84
as(g926
g929
tp1779
(lp1780
S'ME'
p1781
as(S'to'
p1782
g282
tp1783
(lp1784
g283
ag1707
as(g598
g601
tp1785
(lp1786
g156
as(g1716
g1583
tp1787
(lp1788
g1532
as(S'NOW'
p1789
g1562
tp1790
(lp1791
S'YOU'
p1792
as(g1770
g390
tp1793
(lp1794
S'products'
p1795
as(g753
g857
tp1796
(lp1797
S'oversized'
p1798
as(g25
g1478
tp1799
(lp1800
g1479
as(g948
g951
tp1801
(lp1802
S'MY'
p1803
as(g548
S'money'
p1804
tp1805
(lp1806
S'END'
p1807
as(S'BUT'
p1808
g36
tp1809
(lp1810
g37
ag30
as(g1571
g84
tp1811
(lp1812
g85
as(g934
g1025
tp1813
(lp1814
g1200
as(g1154
g225
tp1815
(lp1816
g226
as(g1598
g1125
tp1817
(lp1818
g1126
as(g1200
g1203
tp1819
(lp1820
g1360
as(g545
g548
tp1821
(lp1822
g1804
ag21
as(g929
g1781
tp1823
(lp1824
S'AND'
p1825
as(g1502
S'SUCH'
p1826
tp1827
(lp1828
g80
as(g1308
g1311
tp1829
(lp1830
S'END'
p1831
as(g451
S'food'
p1832
tp1833
(lp1834
S'truck.'
p1835
as(g404
g1808
tp1836
(lp1837
g36
as(g1795
g147
tp1838
(lp1839
g148
as(g1049
g1052
tp1840
(lp1841
S'END'
p1842
as(g1803
S'IPAD.'
p1843
tp1844
(lp1845
S'END'
p1846
as(g226
g229
tp1847
(lp1848
g588
as(g1595
g1598
tp1849
(lp1850
g1125
as(g421
S'ISN\xe2\x80\x99T'
p1851
tp1852
(lp1853
g917
as(g857
g1798
tp1854
(lp1855
S'frockets'
p1856
as(g358
g729
tp1857
(lp1858
g1096
as(g391
g394
tp1859
(lp1860
S'album'
p1861
as(g1550
g626
tp1862
(lp1863
g627
as(g1322
g1325
tp1864
(lp1865
g602
as(g136
S'DARKO'
p1866
tp1867
(lp1868
g984
as(g709
g1594
tp1869
(lp1870
S'any'
p1871
as(g654
g657
tp1872
(lp1873
g658
as(g401
g404
tp1874
(lp1875
g1808
as(g1233
g778
tp1876
(lp1877
g30
as(g30
g1741
tp1878
(lp1879
g1460
as(S'NOW'
p1880
g1566
tp1881
(lp1882
g1771
as(g803
g80
tp1883
(lp1884
g948
as(g1257
g344
tp1885
(lp1886
g345
as(g1546
g744
tp1887
(lp1888
g745
as(S'NOW'
p1889
g1334
tp1890
(lp1891
g974
as(g1741
g1460
tp1892
(lp1893
g1399
as(g1227
g1601
tp1894
(lp1895
g235
as(g1235
S'into'
p1896
tp1897
(lp1898
g1602
as(g1528
g1531
tp1899
(lp1900
S'ago.'
p1901
as(S'NOW'
p1902
g1482
tp1903
(lp1904
g408
as(g1826
g80
tp1905
(lp1906
g319
as(g1180
g849
tp1907
(lp1908
g850
as(g1207
S'LIKE'
p1909
tp1910
(lp1911
g1724
as(g995
g1707
tp1912
(lp1913
g1708
as(g1552
S'beat'
p1914
tp1915
(lp1916
g1782
as(g80
g83
tp1917
(lp1918
g182
as(g570
g128
tp1919
(lp1920
g129
as(g30
g607
tp1921
(lp1922
g608
as(g1539
g1542
tp1923
(lp1924
S'END'
p1925
as(g794
g797
tp1926
(lp1927
g1072
as(g1733
g1736
tp1928
(lp1929
g447
as(g266
g269
tp1930
(lp1931
S'END'
p1932
as(g611
g766
tp1933
(lp1934
g767
as(g1004
g798
tp1935
(lp1936
g738
aS'HEMP'
p1937
as(S'the'
p1938
S'album.'
p1939
tp1940
(lp1941
S'END'
p1942
as(g1851
g917
tp1943
(lp1944
g918
as(g1029
g1032
tp1945
(lp1946
S'END'
p1947
as(g1009
g305
tp1948
(lp1949
g35
as(g20
S'bike'
p1950
tp1951
(lp1952
S'END'
p1953
as(S'NOW'
p1954
g1068
tp1955
(lp1956
g1069
ag1914
as(S'NOW'
p1957
g1563
tp1958
(lp1959
g875
as(g219
g1095
tp1960
(lp1961
S'now.'
p1962
as(g124
g127
tp1963
(lp1964
S'right'
p1965
as(S'NOW'
p1966
g1391
tp1967
(lp1968
g1392
as(g1605
g1251
tp1969
(lp1970
g109
as(g493
g496
tp1971
(lp1972
g806
as(g1087
g1216
tp1973
(lp1974
g30
as(g1914
g1782
tp1975
(lp1976
g282
as(g363
g842
tp1977
(lp1978
g1453
as(S'LONDON'
p1979
g793
tp1980
(lp1981
g794
as(g37
g40
tp1982
(lp1983
g277
as(g1896
g1602
tp1984
(lp1985
g1527
as(S'NOW'
p1986
g556
tp1987
(lp1988
g557
as(g978
g1711
tp1989
(lp1990
g1712
as(g244
g414
tp1991
(lp1992
g161
as(g1548
S'YOU'
p1993
tp1994
(lp1995
g1684
as(g431
g1517
tp1996
(lp1997
g1223
as(g785
S'age.'
p1998
tp1999
(lp2000
S'What'
p2001
as(S'BUT'
p2002
g354
tp2003
(lp2004
g355
as(g1832
g1835
tp2005
(lp2006
S'END'
p2007
as(g15
S'them.'
p2008
tp2009
(lp2010
S'END'
p2011
as(g733
S'turnt'
p2012
tp2013
(lp2014
g314
as(g1689
g889
tp2015
(lp2016
g890
as(g1825
g80
tp2017
(lp2018
g1431
as(g1568
g1750
tp2019
(lp2020
g1751
as(g1551
g631
tp2021
(lp2022
g632
as(g32
g35
tp2023
(lp2024
S'must'
p2025
as(g448
g451
tp2026
(lp2027
g1832
as(g368
g573
tp2028
(lp2029
g1654
as(g428
g431
tp2030
(lp2031
g1517
as(g281
S'IT'
p2032
tp2033
(lp2034
g1631
as(g562
g565
tp2035
(lp2036
g1665
as(g2032
g1631
tp2037
(lp2038
g1301
as(g1383
g802
tp2039
(lp2040
g803
as(g2025
g679
tp2041
(lp2042
g680
as(g1300
g1033
tp2043
(lp2044
g1034
as(g1073
g1076
tp2045
(lp2046
g2002
as(S'NOW'
p2047
g1559
tp2048
(lp2049
S'END'
p2050
as(g1060
g1063
tp2051
(lp2052
g1191
as(g1798
g1856
tp2053
(lp2054
g941
as(g190
g518
tp2055
(lp2056
g1180
as(g1386
g1113
tp2057
(lp2058
g1114
as(g1572
g1575
tp2059
(lp2060
g1759
as(g594
g580
tp2061
(lp2062
g581
as(g1395
g1321
tp2063
(lp2064
g1322
as(g962
g566
tp2065
(lp2066
g567
as(g1126
g1129
tp2067
(lp2068
g1308
as(g975
g978
tp2069
(lp2070
g1711
as(g1553
g1296
tp2071
(lp2072
g1297
as(g433
g80
tp2073
(lp2074
g164
as(g1565
g1706
tp2075
(lp2076
S'END'
p2077
as(g73
g519
tp2078
(lp2079
g520
as(S'NOW'
p2080
g734
tp2081
(lp2082
g497
aS'CALL'
p2083
ag1617
as(g1175
S'TRADE?'
p2084
tp2085
(lp2086
S'END'
p2087
as(g461
g464
tp2088
(lp2089
S'END'
p2090
as(g869
g1240
tp2091
(lp2092
S'high'
p2093
ag47
as(S'NOW'
p2094
g1564
tp2095
(lp2096
g1260
as(g181
g645
tp2097
(lp2098
g467
as(g1601
g235
tp2099
(lp2100
g236
as(g1866
g984
tp2101
(lp2102
g846
as(g443
g446
tp2103
(lp2104
g944
as(g762
g765
tp2105
(lp2106
S'END'
p2107
as(S'TO'
p2108
g1979
tp2109
(lp2110
g793
as(g231
g234
tp2111
(lp2112
g1386
as(S'NOW'
p2113
g323
tp2114
(lp2115
g324
as(g308
g265
tp2116
(lp2117
g266
as(g1081
g80
tp2118
(lp2119
g1491
as(S'NOW'
p2120
g1546
tp2121
(lp2122
g744
as(g277
g280
tp2123
(lp2124
g369
as(S'NOW'
p2125
g1569
tp2126
(lp2127
S'END'
p2128
as(S'NOW'
p2129
g981
tp2130
(lp2131
g663
as(g133
g136
tp2132
(lp2133
g1866
as(g1254
g1257
tp2134
(lp2135
g344
as(g723
g1320
tp2136
(lp2137
g1143
as(g1566
g1771
tp2138
(lp2139
g1772
as(g512
g515
tp2140
(lp2141
g395
as(g110
g113
tp2142
(lp2143
S'END'
p2144
as(g1479
g16
tp2145
(lp2146
g17
as(g1136
g912
tp2147
(lp2148
g913
as(g152
g155
tp2149
(lp2150
S'END'
p2151
as(g515
g395
tp2152
(lp2153
g396
as(S'NOW'
p2154
g359
tp2155
(lp2156
g360
ag1750
as(g1547
g30
tp2157
(lp2158
g1595
as(g1576
g1579
tp2159
(lp2160
g585
as(g1105
g1108
tp2161
(lp2162
g1539
as(S'NOW'
p2163
g1104
tp2164
(lp2165
g1105
as(g1172
g1175
tp2166
(lp2167
g2084
as(S'NOW'
p2168
g1547
tp2169
(lp2170
g30
as(g241
g244
tp2171
(lp2172
g414
as(g229
g588
tp2173
(lp2174
g589
as(g895
g811
tp2175
(lp2176
g812
as(g1861
g245
tp2177
(lp2178
g246
as(S'NOW'
p2179
g996
tp2180
(lp2181
g997
as(g2001
g1580
tp2182
(lp2183
g30
as(g758
g761
tp2184
(lp2185
g865
as(g1781
g1825
tp2186
(lp2187
g80
as(S'OUT'
p2188
S'OF'
p2189
tp2190
(lp2191
g530
as(S'NOW'
p2192
g1548
tp2193
(lp2194
g1993
ag626
as(g1625
g281
tp2195
(lp2196
g2032
as(g871
g874
tp2197
(lp2198
g427
as(g1076
g2002
tp2199
(lp2200
g354
as(S'NOW'
p2201
g1554
tp2202
(lp2203
g825
as(g35
g2025
tp2204
(lp2205
g679
as(g1708
g1211
tp2206
(lp2207
g1212
as(g810
S'front'
p2208
tp2209
(lp2210
g1083
as(g1611
g1745
tp2211
(lp2212
g1746
as(g146
g1163
tp2213
(lp2214
g1164
as(g1909
g1724
tp2215
(lp2216
g1017
as(g1570
g1330
tp2217
(lp2218
g1331
as(g1320
g1143
tp2219
(lp2220
g1144
as(g80
g1491
tp2221
(lp2222
g1492
as(g2189
g530
tp2223
(lp2224
g531
as(g767
g770
tp2225
(lp2226
S'END'
p2227
as(g270
g273
tp2228
(lp2229
S'END'
p2230
as(g1589
g1689
tp2231
(lp2232
g889
as(g787
g790
tp2233
(lp2234
g1130
ag1939
ag831
as(g545
g1732
tp2235
(lp2236
g1733
as(S'NOW'
p2237
g545
tp2238
(lp2239
g1006
aS'have'
p2240
ag1732
ag900
as(g507
g510
tp2241
(lp2242
S'END'
p2243
as(S'NOW'
p2244
g1012
tp2245
(lp2246
g1013
as(g817
g820
tp2247
(lp2248
g561
as(g105
g108
tp2249
(lp2250
g270
as(g1792
S'AT'
p2251
tp2252
(lp2253
g1183
as(g645
g467
tp2254
(lp2255
g468
as(g680
g683
tp2256
(lp2257
S'END'
p2258
as(g1556
g1611
tp2259
(lp2260
g1745
as(g1095
g1962
tp2261
(lp2262
S'END'
p2263
aS'END'
p2264
as(g1856
g941
tp2265
(lp2266
g673
as(g1594
g1871
tp2267
(lp2268
S'cash?'
p2269
as(S'NOW'
p2270
g364
tp2271
(lp2272
g365
as(g659
g662
tp2273
(lp2274
g80
as(g560
g726
tp2275
(lp2276
S'END'
p2277
as(g411
g336
tp2278
(lp2279
g168
as(g7
g10
tp2280
(lp2281
g684
as(g1160
g254
tp2282
(lp2283
g255
as(g951
g1803
tp2284
(lp2285
g1843
as(g1736
g447
tp2286
(lp2287
g448
as(g822
g549
tp2288
(lp2289
g550
as(g1998
g2001
tp2290
(lp2291
g1580
as(g1727
g1473
tp2292
(lp2293
g1474
as(g730
g733
tp2294
(lp2295
g2012
as(g608
g611
tp2296
(lp2297
g766
as(g1064
g1067
tp2298
(lp2299
g1196
as(g2208
g1083
tp2300
(lp2301
g1084
as(g468
g471
tp2302
(lp2303
S'END'
p2304
as(g399
g678
tp2305
(lp2306
S'END'
p2307
as(g874
g427
tp2308
(lp2309
g428
as(g1084
g1087
tp2310
(lp2311
g1216
as(g1492
g80
tp2312
(lp2313
g1628
as(g1277
g1280
tp2314
(lp2315
g575
as(g782
g785
tp2316
(lp2317
g1998
as(g775
g377
tp2318
(lp2319
g378
as(g30
g417
tp2320
(lp2321
g418
as(S'NOW'
p2322
g1567
tp2323
(lp2324
S'END'
p2325
as(g80
g1628
tp2326
(lp2327
g381
as(g745
g748
tp2328
(lp2329
g1342
as(g324
g327
tp2330
(lp2331
g987
as(g17
g20
tp2332
(lp2333
g1950
as(g839
g830
tp2334
(lp2335
g99
as(g45
g2188
tp2336
(lp2337
g2189
as(g1563
g875
tp2338
(lp2339
g876
as(g30
g1237
tp2340
(lp2341
g432
as(g1082
g1207
tp2342
(lp2343
g1909
ag1576
ag433
as(g1164
g30
tp2344
(lp2345
g191
as(g1531
g1901
tp2346
(lp2347
S'END'
p2348
as(S'NOW'
p2349
g1498
tp2350
(lp2351
g1499
as(g1078
g1081
tp2352
(lp2353
g80
as(g601
g156
tp2354
(lp2355
g157
as(g2012
g314
tp2356
(lp2357
g315
as(g711
g714
tp2358
(lp2359
g1677
as(g1234
g646
tp2360
(lp2361
g436
aS'MAKING'
p2362
as(g662
g80
tp2363
(lp2364
g1029
as(S'school'
p2365
g952
tp2366
(lp2367
g349
as(g625
g35
tp2368
(lp2369
g328
as(g1562
g1792
tp2370
(lp2371
g2251
as(g1564
g1260
tp2372
(lp2373
g1261
as(g1018
g925
tp2374
(lp2375
g926
as(g1006
g1009
tp2376
(lp2377
g305
as(g1381
g2108
tp2378
(lp2379
g1979
as(g761
g865
tp2380
(lp2381
g866
as(g842
g1453
tp2382
(lp2383
g1454
as(g12
g15
tp2384
(lp2385
g2008
as(g394
g1861
tp2386
(lp2387
g245
as(g2240
g21
tp2388
(lp2389
g22
as(g630
g1381
tp2390
(lp2391
g2108
as(g30
g717
tp2392
(lp2393
g762
as(g1144
g1147
tp2394
(lp2395
g1465
as(g2
g5
tp2396
(lp2397
g297
as(S'NOW'
p2398
g1555
tp2399
(lp2400
g30
as(g1533
g1536
tp2401
(lp2402
g400
as(g42
g45
tp2403
(lp2404
g2188
as(g1001
g1004
tp2405
(lp2406
g798
aS'THE'
p2407
as(g1579
g585
tp2408
(lp2409
g475
as(g1240
g2093
tp2410
(lp2411
g2365
as(g876
g879
tp2412
(lp2413
g1727
as(g30
g240
tp2414
(lp2415
g241
as(g820
g561
tp2416
(lp2417
g562
as(g2093
g2365
tp2418
(lp2419
g952
as(g1871
g2269
tp2420
(lp2421
S'END'
p2422
as(S'NOW'
p2423
g1157
tp2424
(lp2425
g200
as(g418
g421
tp2426
(lp2427
g1851
as(g947
g1136
tp2428
(lp2429
g912
as(g30
g781
tp2430
(lp2431
g1716
as(g1325
g602
tp2432
(lp2433
g603
as(g807
g810
tp2434
(lp2435
g2208
as(g737
g930
tp2436
(lp2437
g931
as(g1499
g1502
tp2438
(lp2439
g1826
as(g1245
g41
tp2440
(lp2441
g42
as(g1280
g575
tp2442
(lp2443
g576
as(g390
g1795
tp2444
(lp2445
g147
as(S'NOW'
p2446
g205
tp2447
(lp2448
g118
as(g1188
g35
tp2449
(lp2450
g173
as(S'NOW'
p2451
g1048
tp2452
(lp2453
g1049
as(g1063
g1191
tp2454
(lp2455
g1192
as(g971
g372
tp2456
(lp2457
g373
as(S'NOW'
p2458
g1551
tp2459
(lp2460
g631
as(g127
g1965
tp2461
(lp2462
S'now.'
p2463
as(g90
g93
tp2464
(lp2465
g638
as(g748
g1342
tp2466
(lp2467
g1343
as(g701
g704
tp2468
(lp2469
g1938
as(g2083
g903
tp2470
(lp2471
g80
as(g30
g1235
tp2472
(lp2473
g1896
as.