(dp0
(S'1993,'
p1
S'a'
p2
tp3
(lp4
S'cop'
p5
as(S'be'
p6
S'able'
p7
tp8
(lp9
S'to'
p10
as(S'that'
p11
S'anyways?'
p12
tp13
(lp14
S'END'
p15
as(S'scream'
p16
S'therapy.'
p17
tp18
(lp19
S'END'
p20
as(S'throw'
p21
S'it.'
p22
tp23
(lp24
S'END'
p25
as(S'the'
p26
S'godless'
p27
tp28
(lp29
S'raging'
p30
as(S'Well,'
p31
S'no.'
p32
tp33
(lp34
S'END'
p35
as(S'of'
p36
S'my'
p37
tp38
(lp39
S'birth,'
p40
aS'room'
p41
as(S'Just'
p42
S'another'
p43
tp44
(lp45
S'dead'
p46
as(S'of'
p47
S'sadness'
p48
tp49
(lp50
S'and'
p51
as(S'NOW'
p52
S'No.'
p53
tp54
(lp55
S'END'
p56
as(S'their'
p57
S'humor'
p58
tp59
(lp60
S'is'
p61
as(S'NOW'
p62
S'The'
p63
tp64
(lp65
S'camera'
p66
aS'company!'
p67
as(S'company'
p68
S'thing,'
p69
tp70
(lp71
S'though,'
p72
as(S'we\xe2\x80\x99re'
p73
S'trying'
p74
tp75
(lp76
S'to'
p77
as(S'It\xe2\x80\x99s'
p78
S'purging!!'
p79
tp80
(lp81
S'END'
p82
as(S'NOW'
p83
S'Boy.'
p84
tp85
(lp86
S'END'
p87
as(S'I'
p88
S'let'
p89
tp90
(lp91
S'you'
p92
as(S'fun'
p93
S'to'
p94
tp95
(lp96
S'watch.'
p97
aS'watch.'
p98
as(S'your'
p99
S'mind'
p100
tp101
(lp102
S'going'
p103
as(S'kegger,'
p104
S'and'
p105
tp106
(lp107
S'they'
p108
as(S'at'
p109
S'him.'
p110
tp111
(lp112
S'END'
p113
as(g88
S'wouldn\xe2\x80\x99t'
p114
tp115
(lp116
S'dream'
p117
as(S'A'
p118
S'FUCKIN'
p119
tp120
(lp121
S'HOLE'
p122
as(S'my'
p123
S'theory'
p124
tp125
(lp126
S'is'
p127
as(S'And'
p128
S'White'
p129
tp130
(lp131
S'Trash.'
p132
as(S'heard'
p133
S'that'
p134
tp135
(lp136
S'the'
p137
as(S'they'
p138
S'died.'
p139
tp140
(lp141
S'END'
p142
as(S'think'
p143
S'he'
p144
tp145
(lp146
S'has'
p147
as(g88
S'know'
p148
tp149
(lp150
S'died.'
p151
as(S'It'
p152
S'seems'
p153
tp154
(lp155
S'as'
p156
as(S'let'
p157
S'me'
p158
tp159
(lp160
S'sleep'
p161
aS'miss'
p162
as(S'in'
p163
S'his'
p164
tp165
(lp166
S'whole'
p167
as(g88
S'decided'
p168
tp169
(lp170
S'not'
p171
as(S'NOW'
p172
S'Perhaps'
p173
tp174
(lp175
S'you'
p176
as(S'Dance'
p177
S'Tune,'
p178
tp179
(lp180
S'You'
p181
as(S'and'
p182
S'needs'
p183
tp184
(lp185
S'me'
p186
as(S'NOW'
p187
S'"I\'m'
p188
tp189
(lp190
S'sad'
p191
as(S'into'
p192
S'school.'
p193
tp194
(lp195
S'END'
p196
as(S'newfound'
p197
S'knowledge,'
p198
tp199
(lp200
S'if'
p201
as(S'the'
p202
S'development'
p203
tp204
(lp205
S'of'
p206
as(S'fuckin'
p207
S'phone'
p208
tp209
(lp210
S'call'
p211
as(S'That\xe2\x80\x99s'
p212
S'fucking'
p213
tp214
(lp215
S'stupid,'
p216
as(S'crap'
p217
S'did'
p218
tp219
(lp220
S'you'
p221
as(S'NOW'
p222
S"he's"
p223
tp224
(lp225
S'found'
p226
as(S'were'
p227
S'too'
p228
tp229
(lp230
S'busy'
p231
aS'busy'
p232
as(S'NOW'
p233
S'Mother?'
p234
tp235
(lp236
S'END'
p237
as(S'the'
p238
S'realizing'
p239
tp240
(lp241
S'in'
p242
as(S'can'
p243
S'just'
p244
tp245
(lp246
S'isolate'
p247
as(S'But'
p248
S'it\xe2\x80\x99ll'
p249
tp250
(lp251
S'be'
p252
as(S'ones'
p253
S'be'
p254
tp255
(lp256
S'flocking'
p257
as(S'NOW'
p258
S'Nothing'
p259
tp260
(lp261
S'to'
p262
as(S'past'
p263
S'NAME4'
p264
tp265
(lp266
S'at'
p267
as(g2
S'half'
p268
tp269
(lp270
S'minutes.'
p271
as(S'NOW'
p272
S'Well\xe2\x80\xa6'
p273
tp274
(lp275
S'END'
p276
as(g206
S'the'
p277
tp278
(lp279
S'company'
p280
as(S'believe'
p281
g163
tp282
(lp283
g164
as(S'were'
p284
S'dreaming!'
p285
tp286
(lp287
S'END'
p288
as(g2
S'music'
p289
tp290
(lp291
S'video'
p292
as(S'connection'
p293
S'to'
p294
tp295
(lp296
S'no'
p297
as(S'NOW'
p298
S'He\xe2\x80\x99s'
p299
tp300
(lp301
g93
as(S'NOW'
p302
S'You\xe2\x80\x99re'
p303
tp304
(lp305
S'gonna'
p306
aS'trying'
p307
as(g191
S'because...'
p308
tp309
(lp310
S'END'
p311
as(S'No,'
p312
g88
tp313
(lp314
S'don\xe2\x80\x99t'
p315
as(S'big'
p316
S'fuckin'
p317
tp318
(lp319
S'hole'
p320
as(S'reason'
p321
S'to'
p322
tp323
(lp324
S'let'
p325
as(S'the'
p326
S'room,'
p327
tp328
(lp329
g263
as(S'art,'
p330
S'but'
p331
tp332
(lp333
S'in'
p334
as(S'was'
p335
S'kicking'
p336
tp337
(lp338
S'and'
p339
as(S'NOW'
p340
S'We'
p341
tp342
(lp343
S'still'
p344
aS'must'
p345
as(S'Dreamed'
p346
g2
tp347
(lp348
S'dream'
p349
as(S'sells'
p350
S'cows?'
p351
tp352
(lp353
S'END'
p354
as(g108
S'locked'
p355
tp356
(lp357
S'him'
p358
as(S'do'
p359
S'you?'
p360
tp361
(lp362
S'END'
p363
as(S'with'
p364
S'NAME1?'
p365
tp366
(lp367
S'END'
p368
as(g208
g211
tp369
(lp370
S'to'
p371
as(S'the'
p372
S'direction'
p373
tp374
(lp375
S'of'
p376
as(g88
g346
tp377
(lp378
g2
as(S'up,'
p379
S'NAME4.'
p380
tp381
(lp382
S'END'
p383
as(S'with'
p384
S'adoration?'
p385
tp386
(lp387
S'END'
p388
as(S'Bob'
p389
S'Ross?'
p390
tp391
(lp392
S'END'
p393
as(S'just'
p394
S'another'
p395
tp396
(lp397
S'empty'
p398
as(S'into'
p399
S'this'
p400
tp401
(lp402
S'shit.'
p403
as(S'along'
p404
S'for'
p405
tp406
(lp407
S'that'
p408
as(S'Oh,'
p409
S'hey,'
p410
tp411
(lp412
S'we'
p413
as(S'I\xe2\x80\x99ll'
p414
S'tag'
p415
tp416
(lp417
g404
as(S'The'
p418
g67
tp419
(lp420
S'END'
p421
as(S'NOW'
p422
S'We\xe2\x80\x99re'
p423
tp424
(lp425
S'still'
p426
aS'gonna'
p427
as(S'purveyor'
p428
S'of'
p429
tp430
(lp431
S'bovine'
p432
as(g415
g404
tp433
(lp434
g405
as(S'gotta'
p435
S'encourage'
p436
tp437
(lp438
S'him?'
p439
as(S'my'
p440
S'head!'
p441
tp442
(lp443
S'END'
p444
as(S'he\xe2\x80\x99s'
p445
S'gonna'
p446
tp447
(lp448
S'interview'
p449
as(S'your'
p450
S'dad'
p451
tp452
(lp453
S'is'
p454
as(S'another'
p455
S'tomorrow'
p456
tp457
(lp458
S'to'
p459
as(S'helps'
p460
S'me'
p461
tp462
(lp463
S'sleep'
p464
as(S'think'
p465
S'he\xe2\x80\x99s'
p466
tp467
(lp468
S'doomed.'
p469
as(S'and'
p470
S'his'
p471
tp472
(lp473
S'primal'
p474
as(S'pay'
p475
S'for'
p476
tp477
(lp478
S'it\xe2\x80\xa6'
p479
as(S'What\xe2\x80\x99s'
p480
g379
tp481
(lp482
g380
as(S'his'
p483
S'company!'
p484
tp485
(lp486
S'END'
p487
as(S'goes'
p488
S'off'
p489
tp490
(lp491
S'in'
p492
as(g88
S'mean,'
p493
tp494
(lp495
S'isn\xe2\x80\x99t'
p496
as(S'the'
p497
S'game.'
p498
tp499
(lp500
S'END'
p501
as(S'NOW'
p502
S'Quickly'
p503
tp504
(lp505
S'now!'
p506
as(g66
S'takes'
p507
tp508
(lp509
S'its'
p510
as(S'your'
p511
S'mom'
p512
tp513
(lp514
S'is'
p515
as(S'mind'
p516
S'only'
p517
tp518
(lp519
S'stays'
p520
as(S'and'
p521
S'nobody'
p522
tp523
(lp524
S'cares.'
p525
as(g493
g496
tp526
(lp527
S'it'
p528
as(S'up'
p529
g2
tp530
(lp531
g104
as(S'instigators'
p532
S'of'
p533
tp534
(lp535
S'this'
p536
as(S'my'
p537
S'counselor!'
p538
tp539
(lp540
S'END'
p541
as(S'don\xe2\x80\x99t'
p542
S'drag'
p543
tp544
(lp545
S'me'
p546
as(S'help'
p547
S'with'
p548
tp549
(lp550
S'that'
p551
as(S'this'
p552
S'notion.'
p553
tp554
(lp555
S'END'
p556
as(g89
g92
tp557
(lp558
S'sleep'
p559
as(S'helping'
p560
S'him'
p561
tp562
(lp563
S'start'
p564
as(S'their'
p565
S'beautiful'
p566
tp567
(lp568
S'creation.'
p569
as(S'he\xe2\x80\x99s'
p570
S'got'
p571
tp572
(lp573
g2
as(S'Robin'
p574
S'Williams'
p575
tp576
(lp577
S'END'
p578
ag182
as(g88
S'call'
p579
tp580
(lp581
S'and'
p582
as(S'leftovers'
p583
S'down'
p584
tp585
(lp586
S'the'
p587
as(S'NOW'
p588
S'You\xe2\x80\x99ll'
p589
tp590
(lp591
S'be'
p592
as(S'you\xe2\x80\x99re'
p593
S'doomed.'
p594
tp595
(lp596
S'END'
p597
as(S'you'
p598
S'get'
p599
tp600
(lp601
S'remarried.'
p602
as(S'He'
p603
S'he\xe2\x80\xa6'
p604
tp605
(lp606
S'END'
p607
as(S'pyro'
p608
S'wino.'
p609
tp610
(lp611
S'END'
p612
as(g63
g66
tp613
(lp614
g507
as(S'your'
p615
S'room'
p616
tp617
(lp618
S'for'
p619
as(S'If'
p620
g123
tp621
(lp622
g124
as(S'himself'
p623
S'about'
p624
tp625
(lp626
S'how'
p627
as(S'shall'
p628
S'you'
p629
tp630
(lp631
S'say'
p632
aS'say?'
p633
as(S'were'
p634
S'whimpering.'
p635
tp636
(lp637
S'END'
p638
as(S'We'
p639
g345
tp640
(lp641
S'disappear'
p642
as(S'break'
p643
g529
tp644
(lp645
g2
as(S'That\xe2\x80\x99s'
p646
S'insane.'
p647
tp648
(lp649
S'END'
p650
as(S'one'
p651
S'and'
p652
tp653
(lp654
g2
as(S'everyone'
p655
g88
tp656
(lp657
g148
as(g2
S'cow'
p658
tp659
(lp660
S'to'
p661
as(S'under'
p662
g2
tp663
(lp664
S'keg'
p665
as(S'busy'
p666
S'with'
p667
tp668
(lp669
S'Charlotte'
p670
as(S'of'
p671
S'small'
p672
tp673
(lp674
S'talk.'
p675
as(S'right'
p676
S'comment,'
p677
tp678
(lp679
S'and'
p680
as(S'all'
p681
g238
tp682
(lp683
g239
as(S'somewhere'
p684
S'that'
p685
tp686
(lp687
S'they'
p688
as(g528
S'an'
p689
tp690
(lp691
S'important'
p692
as(S'that\xe2\x80\x99s'
p693
S'what'
p694
tp695
(lp696
g73
as(g619
g2
tp697
(lp698
S'practice'
p699
as(g579
g582
tp700
(lp701
S'remind'
p702
as(S'Why'
p703
S'do'
p704
tp705
(lp706
S'you'
p707
as(S'spend'
p708
S'time'
p709
tp710
(lp711
S'with'
p712
as(S'for'
p713
S'finding'
p714
tp715
(lp716
S'the'
p717
as(S'Not'
p718
S'in'
p719
tp720
(lp721
S'public'
p722
as(S'spot'
p723
S'where'
p724
tp725
(lp726
g88
as(S'first'
p727
S'person'
p728
tp729
(lp730
S'in'
p731
as(S'gonna'
p732
g21
tp733
(lp734
g22
as(g423
g426
tp735
(lp736
S'having'
p737
as(g48
g51
tp738
(lp739
S'destruction.'
p740
as(g161
S'in'
p741
tp742
(lp743
S'NAME1?'
p744
aS'because'
p745
as(S'NOW'
p746
S'Oh'
p747
tp748
(lp749
S'yeah?'
p750
aS'come'
p751
as(g40
S'the'
p752
tp753
(lp754
g532
as(S'him'
p755
g2
tp756
(lp757
S'homemade'
p758
as(g226
S'the'
p759
tp760
(lp761
S'food.'
p762
as(g198
g201
tp763
(lp764
g88
as(g546
g399
tp765
(lp766
g400
as(S'human'
p767
g516
tp768
(lp769
g517
as(g88
S'didn\xe2\x80\x99t'
p770
tp771
(lp772
S'expect'
p773
as(S'just'
p774
S'to'
p775
tp776
(lp777
S'make'
p778
as(S'know'
p779
S'that'
p780
tp781
(lp782
g511
as(g778
S'sure'
p783
tp784
(lp785
S'he'
p786
as(g37
g40
tp787
(lp788
g752
as(S'of'
p789
S'dreaming.'
p790
tp791
(lp792
S'END'
p793
as(g147
S'the'
p794
tp795
(lp796
S'capacity'
p797
as(S'already'
p798
g666
tp799
(lp800
g667
as(g632
S'when'
p801
tp802
(lp803
g88
as(S'do'
p804
S'when'
p805
tp806
(lp807
g598
as(S'you'
p808
S'will.'
p809
tp810
(lp811
S'END'
p812
as(S'NOW'
p813
S'NAME4'
p814
tp815
(lp816
S'glances'
p817
as(g277
g280
tp818
(lp819
S'as'
p820
as(S'Father,'
p821
S'what'
p822
tp823
(lp824
S'shall'
p825
as(S'enough'
p826
S'to'
p827
tp828
(lp829
g779
as(g223
g226
tp830
(lp831
g759
as(S'through'
p832
S'its'
p833
tp834
(lp835
S'purging'
p836
as(S'you'
p837
g88
tp838
(lp839
S'had'
p840
as(S'stimulated'
p841
S'for'
p842
tp843
(lp844
g651
as(S'the'
p845
S'hell'
p846
tp847
(lp848
S'are'
p849
aS'is'
p850
as(g51
g740
tp851
(lp852
S'END'
p853
as(g658
g661
tp854
(lp855
S'call'
p856
as(S'How'
p857
S'long'
p858
tp859
(lp860
S'have'
p861
as(S'NOW'
p862
S'Why'
p863
tp864
(lp865
S'not'
p866
aS'the'
p867
aS'you'
p868
ag704
aS'are'
p869
as(g10
S'extrapolate'
p870
tp871
(lp872
S'the\xe2\x80\xa6'
p873
as(g536
S'miracle'
p874
tp875
(lp876
S'of'
p877
as(S'the'
p878
S'feeling'
p879
tp880
(lp881
S'and'
p882
as(S'always'
p883
g804
tp884
(lp885
g805
as(S'You'
p886
S'were'
p887
tp888
(lp889
S'too'
p890
as(S'only'
p891
S'been'
p892
tp893
(lp894
S'through'
p895
as(S'NOW'
p896
S'Hey'
p897
tp898
(lp899
S'man.'
p900
aS'man.'
p901
aS'NAME1,'
p902
as(S'at'
p903
S'night.'
p904
tp905
(lp906
S'END'
p907
as(g2
S'surprise'
p908
tp909
(lp910
S'party\xe2\x80\xa6'
p911
as(g344
S'drop'
p912
tp913
(lp914
g583
as(S"THERE'S"
p915
g118
tp916
(lp917
g119
as(S'tubes'
p918
S'for'
p919
tp920
(lp921
S'him.'
p922
as(S'this'
p923
S'outside.'
p924
tp925
(lp926
S'END'
p927
as(S'You'
p928
S'sir,'
p929
tp930
(lp931
S'know'
p932
as(S'you'
p933
S'wanted'
p934
tp935
(lp936
S'to'
p937
as(g627
S'horrible'
p938
tp939
(lp940
S'that'
p941
as(S'whisper'
p942
S'of'
p943
tp944
(lp945
g2
as(g427
S'document'
p946
tp947
(lp948
g202
as(g827
g779
tp949
(lp950
g780
as(S'wanders'
p951
S'through'
p952
tp953
(lp954
g326
as(S'that\xe2\x80\x99s'
p955
S'why.'
p956
tp957
(lp958
S'END'
p959
as(S'interrupt'
p960
S'dreams.'
p961
tp962
(lp963
S'END'
p964
as(g345
g642
tp965
(lp966
S'with'
p967
as(g780
g511
tp968
(lp969
g512
as(S'And'
p970
S'than'
p971
tp972
(lp973
g88
as(S'remarried,'
p974
S'and'
p975
tp976
(lp977
g933
as(g2
S'basement.'
p978
tp979
(lp980
S'END'
p981
as(S'hell'
p982
g850
tp983
(lp984
g11
as(S'up'
p985
S'on'
p986
tp987
(lp988
S'the'
p989
as(S'NOW'
p990
S'Perhaps,'
p991
tp992
(lp993
S'they'
p994
as(S'And'
p995
S'that\xe2\x80\x99s'
p996
tp997
(lp998
S'no'
p999
as(S'learn'
p1000
S'to'
p1001
tp1002
(lp1003
S'utilize'
p1004
as(g840
g2
tp1005
(lp1006
S'meeting'
p1007
as(S'the'
p1008
S'computer.'
p1009
tp1010
(lp1011
S'END'
p1012
as(g902
S'NAME3'
p1013
tp1014
(lp1015
S'thinks'
p1016
as(S'Cheapskate'
p1017
S'Hill.'
p1018
tp1019
(lp1020
S'END'
p1021
as(g188
g191
tp1022
(lp1023
g308
as(S'in'
p1024
g878
tp1025
(lp1026
g879
ag373
aS'basement'
p1027
aS'band.'
p1028
ag498
aS'closet,'
p1029
as(S'I\xe2\x80\x99m'
p1030
g560
tp1031
(lp1032
g561
as(S'presenting'
p1033
S'it'
p1034
tp1035
(lp1036
S'at'
p1037
as(g129
g132
tp1038
(lp1039
S'END'
p1040
as(g289
g292
tp1041
(lp1042
S'for'
p1043
as(S'back'
p1044
g192
tp1045
(lp1046
g193
as(S'and'
p1047
S'the'
p1048
tp1049
(lp1050
S'truth'
p1051
as(S'behind'
p1052
S'NAME2,'
p1053
tp1054
(lp1055
S'who'
p1056
as(g429
g432
tp1057
(lp1058
S'and'
p1059
as(g510
S'place'
p1060
tp1061
(lp1062
g1052
as(S'of'
p1063
S'doom.'
p1064
tp1065
(lp1066
S'END'
p1067
as(g773
S'these'
p1068
tp1069
(lp1070
S'vibrations'
p1071
as(g2
g316
tp1072
(lp1073
g317
as(g297
S'one!!'
p1074
tp1075
(lp1076
S'END'
p1077
as(S'off'
p1078
S'mumbling'
p1079
tp1080
(lp1081
S'to'
p1082
as(S'Oh,'
p1083
S'my'
p1084
tp1085
(lp1086
S'dark'
p1087
aS'dark'
p1088
as(g2
g5
tp1089
(lp1090
S'came'
p1091
as(g1037
S'the'
p1092
tp1093
(lp1094
S'perfect'
p1095
ag1009
as(g783
g786
tp1096
(lp1097
S"wouldn't"
p1098
as(S'and'
p1099
S'covered'
p1100
tp1101
(lp1102
S'it.'
p1103
as(g566
g569
tp1104
(lp1105
S'END'
p1106
as(S'standing'
p1107
S'there?'
p1108
tp1109
(lp1110
S'END'
p1111
as(S'get'
p1112
g1044
tp1113
(lp1114
g192
as(S'me'
p1115
S'that'
p1116
tp1117
(lp1118
S'you'
p1119
as(g413
S'gotta'
p1120
tp1121
(lp1122
S'use'
p1123
as(g186
S'to'
p1124
tp1125
(lp1126
S'be'
p1127
as(S'NOW'
p1128
S'We\xe2\x80\x99ve'
p1129
tp1130
(lp1131
g891
as(g833
g836
tp1132
(lp1133
S'style!!'
p1134
as(g759
g762
tp1135
(lp1136
S'END'
p1137
as(S'my'
p1138
g41
tp1139
(lp1140
S'NAME1!!'
p1141
as(g2
S'perving'
p1142
tp1143
(lp1144
g608
as(g882
S'falling'
p1145
tp1146
(lp1147
S'and'
p1148
as(S'his'
p1149
S'birthday.'
p1150
tp1151
(lp1152
S'END'
p1153
as(g320
S'in'
p1154
tp1155
(lp1156
S'my'
p1157
as(S'Can\xe2\x80\x99t'
p1158
S'waste'
p1159
tp1160
(lp1161
S'time'
p1162
as(S'not'
p1163
S'yet.'
p1164
tp1165
(lp1166
S'END'
p1167
as(g2
S'meaningless'
p1168
tp1169
(lp1170
g293
as(S'just'
p1171
S'NAME3'
p1172
tp1173
(lp1174
g470
as(S'doin'
p1175
S'there,'
p1176
tp1177
(lp1178
S'NAME1y'
p1179
as(S'this'
p1180
S'twenty'
p1181
tp1182
(lp1183
S'two'
p1184
as(S'Oh'
p1185
g751
tp1186
(lp1187
S'on!'
p1188
as(S'Your'
p1189
S'leg'
p1190
tp1191
(lp1192
g335
as(S'There\xe2\x80\x99s'
p1193
S'talk'
p1194
tp1195
(lp1196
g1063
as(S'been'
p1197
g1107
tp1198
(lp1199
g1108
as(g203
g206
tp1200
(lp1201
g277
as(g176
g974
tp1202
(lp1203
g975
as(S'fascinating,'
p1204
S'your'
p1205
tp1206
(lp1207
S'turn'
p1208
as(g520
g841
tp1209
(lp1210
g842
as(S'dark'
p1211
g723
tp1212
(lp1213
g724
as(g1181
g1184
tp1214
(lp1215
S'times'
p1216
as(S'just'
p1217
S'white'
p1218
tp1219
(lp1220
S'trash.'
p1221
as(S'make'
p1222
S'it'
p1223
tp1224
(lp1225
S'twenty'
p1226
as(g158
g161
tp1227
(lp1228
g741
ag903
as(S'timing'
p1229
S'the'
p1230
tp1231
(lp1232
S'skits.'
p1233
as(g153
g156
tp1234
(lp1235
S'though'
p1236
as(S'NOW'
p1237
g857
tp1238
(lp1239
g858
as(g164
g167
tp1240
(lp1241
g68
as(S'plan'
p1242
S'for.'
p1243
tp1244
(lp1245
S'END'
p1246
as(S'phrase,'
p1247
S'your'
p1248
tp1249
(lp1250
S'instinct'
p1251
as(g239
g242
tp1252
(lp1253
g440
as(S'me'
p1254
S'showering'
p1255
tp1256
(lp1257
S'me'
p1258
as(S'Why'
p1259
g868
tp1260
(lp1261
g435
as(g629
g632
tp1262
(lp1263
g801
as(g476
g479
tp1264
(lp1265
S'END'
p1266
as(S'Are'
p1267
S'you'
p1268
tp1269
(lp1270
S'having'
p1271
as(S'NOW'
p1272
S'Stay'
p1273
tp1274
(lp1275
S'out'
p1276
as(S'the'
p1277
S'recurring'
p1278
tp1279
(lp1280
S'conundrum,'
p1281
as(S'life'
p1282
g227
tp1283
(lp1284
g228
as(S'you'
p1285
g633
tp1286
(lp1287
S'END'
p1288
as(S'by'
p1289
S'watching'
p1290
tp1291
(lp1292
S'clips'
p1293
as(S'find'
p1294
S'it'
p1295
tp1296
(lp1297
g1204
as(g522
g525
tp1298
(lp1299
S'END'
p1300
as(g728
g731
tp1301
(lp1302
S'the'
p1303
as(g1001
g1004
tp1304
(lp1305
S'this'
p1306
as(g989
S'ceiling!'
p1307
tp1308
(lp1309
S'END'
p1310
as(S'my'
p1311
S'face!'
p1312
tp1313
(lp1314
S'END'
p1315
as(S'I\xe2\x80\x99ll'
p1316
g475
tp1317
(lp1318
g476
as(S'faith'
p1319
S'used'
p1320
tp1321
(lp1322
S'to'
p1323
as(g257
S'around'
p1324
tp1325
(lp1326
g1254
as(g46
g207
tp1327
(lp1328
g208
as(g88
S"couldn't"
p1329
tp1330
(lp1331
S'find'
p1332
as(g1048
g1051
tp1333
(lp1334
S'is'
p1335
as(S'the'
p1336
g727
tp1337
(lp1338
g728
as(S'horrible'
p1339
S'thought.'
p1340
tp1341
(lp1342
S'END'
p1343
as(g571
g2
tp1344
(lp1345
g289
as(S'loved'
p1346
g253
tp1347
(lp1348
g254
as(S'NOW'
p1349
S'Shouldn\xe2\x80\x99t'
p1350
tp1351
(lp1352
S'my'
p1353
as(g1098
S'escape.'
p1354
tp1355
(lp1356
S'END'
p1357
as(S'anniversary'
p1358
g36
tp1359
(lp1360
g37
as(g41
g1141
tp1361
(lp1362
S'END'
p1363
as(S'Will'
p1364
S'you'
p1365
tp1366
(lp1367
S'tell'
p1368
aS'throw'
p1369
as(S'even'
p1370
S'cares!'
p1371
tp1372
(lp1373
S'END'
p1374
as(g77
S'avoid.'
p1375
tp1376
(lp1377
S'END'
p1378
as(S'sell'
p1379
g2
tp1380
(lp1381
S'cow?'
p1382
as(g680
g1033
tp1383
(lp1384
g1034
as(g92
g559
tp1385
(lp1386
S'in'
p1387
as(S'Whatcha'
p1388
g1175
tp1389
(lp1390
g1176
as(g868
g435
tp1391
(lp1392
g436
as(g167
g68
tp1393
(lp1394
g69
as(g88
S'don\xe2\x80\x99t'
p1395
tp1396
(lp1397
g960
ag143
as(S'guess'
p1398
g414
tp1399
(lp1400
g415
as(g846
g849
tp1401
(lp1402
S'you'
p1403
as(g758
S'lobotomy,'
p1404
tp1405
(lp1406
g774
as(g692
S'day?'
p1407
tp1408
(lp1409
S'END'
p1410
as(S'NOW'
p1411
S'They'
p1412
tp1413
(lp1414
S'used'
p1415
as(g436
g439
tp1416
(lp1417
S'END'
p1418
as(g306
S'drink'
p1419
tp1420
(lp1421
S'again,'
p1422
as(S'tormented'
p1423
S'soul.'
p1424
tp1425
(lp1426
S'END'
p1427
as(g503
g506
tp1428
(lp1429
S'END'
p1430
as(g201
g88
tp1431
(lp1432
g243
as(g61
S'based'
p1433
tp1434
(lp1435
S'on'
p1436
as(g592
g1336
tp1437
(lp1438
g727
as(S'selling'
p1439
g2
tp1440
(lp1441
g658
as(g1251
g713
tp1442
(lp1443
g714
as(g1365
g1368
tp1444
(lp1445
g1115
as(g817
S'up'
p1446
tp1447
(lp1448
g109
as(S'Why'
p1449
g869
tp1450
(lp1451
S'you'
p1452
as(g322
g325
tp1453
(lp1454
S'me'
p1455
as(g280
g820
tp1456
(lp1457
S'if'
p1458
as(g1082
g623
tp1459
(lp1460
g624
as(g584
g587
tp1461
(lp1462
S'ventilation'
p1463
as(S'up'
p1464
S'dude.'
p1465
tp1466
(lp1467
S'END'
p1468
as(g105
g108
tp1469
(lp1470
g355
as(S'you\xe2\x80\x99re'
p1471
S'in'
p1472
tp1473
(lp1474
S'the'
p1475
as(g1455
g162
tp1476
(lp1477
S'my'
p1478
as(g938
g941
tp1479
(lp1480
S'would'
p1481
as(S'against'
p1482
S'my'
p1483
tp1484
(lp1485
S'belief'
p1486
as(g405
g408
tp1487
(lp1488
S'one.'
p1489
as(S'IN'
p1490
S'MY'
p1491
tp1492
(lp1493
S'BRAIN!!!!!'
p1494
as(g699
S'photo'
p1495
tp1496
(lp1497
S'shoot'
p1498
as(S'Maybe'
p1499
g138
tp1500
(lp1501
g139
as(g714
g717
tp1502
(lp1503
g676
as(S'doomed,'
p1504
S'NAME3?'
p1505
tp1506
(lp1507
S'END'
p1508
as(g1100
g1103
tp1509
(lp1510
S'END'
p1511
as(g1458
S'it'
p1512
tp1513
(lp1514
S'were'
p1515
as(S'NOW'
p1516
g88
tp1517
(lp1518
g346
aS'saw'
p1519
ag1294
ag133
ag493
aS'heard'
p1520
aS'told'
p1521
ag89
aS'wasn\xe2\x80\x99t'
p1522
ag1395
aS'dunno.'
p1523
ag465
ag114
ag770
as(g254
g257
tp1524
(lp1525
g1324
as(g1412
g1415
tp1526
(lp1527
S'to'
p1528
as(g317
g320
tp1529
(lp1530
g1154
as(g971
g88
tp1531
(lp1532
S'woke'
p1533
as(g1255
g1258
tp1534
(lp1535
g384
as(S'of'
p1536
S'strength.'
p1537
tp1538
(lp1539
S'END'
p1540
as(g1268
g1271
tp1541
(lp1542
g2
as(g1273
g1276
tp1543
(lp1544
S'of'
p1545
as(S'son'
p1546
S'on'
p1547
tp1548
(lp1549
g1149
as(g88
g1533
tp1550
(lp1551
g985
as(g548
g551
tp1552
(lp1553
S'one.'
p1554
as(S'For'
p1555
S'now'
p1556
tp1557
(lp1558
S'NAME4'
p1559
as(S'your'
p1560
S'new'
p1561
tp1562
(lp1563
S'wife?'
p1564
as(S'NOW'
p1565
S"It's"
p1566
tp1567
(lp1568
g1171
as(S'want'
p1569
g2
tp1570
(lp1571
g908
as(S'What'
p1572
g845
tp1573
(lp1574
g846
ag982
as(g946
g202
tp1575
(lp1576
g203
as(S'That\xe2\x80\x99s'
p1577
S'stupid.'
p1578
tp1579
(lp1580
S'END'
p1581
as(S'remember'
p1582
g565
tp1583
(lp1584
g566
as(S'It\xe2\x80\x99s'
p1585
S'therapy!!'
p1586
tp1587
(lp1588
S'END'
p1589
as(g1521
g837
tp1590
(lp1591
g88
as(S'gets'
p1592
S'up'
p1593
tp1594
(lp1595
S'and'
p1596
as(g358
S'in'
p1597
tp1598
(lp1599
S'the'
p1600
as(g88
g465
tp1601
(lp1602
g466
as(S'Because'
p1603
S"there's"
p1604
tp1605
(lp1606
g2
as(g689
g692
tp1607
(lp1608
g1407
as(S'Too'
p1609
S'busy'
p1610
tp1611
(lp1612
S'igniting'
p1613
as(g341
g344
tp1614
(lp1615
g912
as(g507
g510
tp1616
(lp1617
g1060
as(g58
g61
tp1618
(lp1619
g1433
as(g1303
g1029
tp1620
(lp1621
S'doing'
p1622
as(S'just'
p1623
S'need\xe2\x80\xa6'
p1624
tp1625
(lp1626
g2
as(g178
g181
tp1627
(lp1628
S'better'
p1629
as(g1387
g745
tp1630
(lp1631
S'you'
p1632
as(S'NOW'
p1633
g1163
tp1634
(lp1635
g1164
as(g1433
g1436
tp1636
(lp1637
g552
as(g127
S'correct,'
p1638
tp1639
(lp1640
g57
as(S'sophisticated'
p1641
g330
tp1642
(lp1643
g331
as(S'You'
p1644
g883
tp1645
(lp1646
g804
as(g919
g922
tp1647
(lp1648
S'END'
p1649
as(S'solace,'
p1650
g1047
tp1651
(lp1652
g1048
as(g1528
S'have'
p1653
tp1654
(lp1655
g2
as(g688
S'gave'
p1656
tp1657
(lp1658
g755
as(S'NOW'
p1659
S'Encore,'
p1660
tp1661
(lp1662
S'mon-frer.'
p1663
as(g836
g1134
tp1664
(lp1665
S'END'
p1666
as(S'NOW'
p1667
S'After'
p1668
tp1669
(lp1670
S'all,'
p1671
as(g1481
S'be.'
p1672
tp1673
(lp1674
S'END'
p1675
as(g94
g97
tp1676
(lp1677
S'END'
p1678
aS'END'
p1679
as(S'NOW'
p1680
S'Here\xe2\x80\x99s'
p1681
tp1682
(lp1683
S'$50.'
p1684
as(g88
g1523
tp1685
(lp1686
S'END'
p1687
as(S'You'
p1688
S'have'
p1689
tp1690
(lp1691
g574
as(S'Maybe'
p1692
g655
tp1693
(lp1694
g88
as(S'NOW'
p1695
S'So'
p1696
tp1697
(lp1698
S'anyways,'
p1699
as(S'What'
p1700
g2
tp1701
(lp1702
g1339
as(S'NOW'
p1703
S'Nobody'
p1704
tp1705
(lp1706
g1370
as(g410
g413
tp1707
(lp1708
g1120
as(g264
g267
tp1709
(lp1710
g1008
as(g211
g371
tp1711
(lp1712
g26
as(g1332
g1311
tp1713
(lp1714
g1312
ag1650
as(g1656
g755
tp1715
(lp1716
g2
as(S'And'
p1717
g821
tp1718
(lp1719
g822
as(S'your'
p1720
S'fucking'
p1721
tp1722
(lp1723
S'Primal'
p1724
as(S'will'
p1725
S'wander'
p1726
tp1727
(lp1728
g1078
as(S'there\xe2\x80\x99s'
p1729
S'always'
p1730
tp1731
(lp1732
g455
as(g43
g46
tp1733
(lp1734
g207
as(g665
g47
tp1735
(lp1736
g48
as(S'Practice'
p1737
S'in'
p1738
tp1739
(lp1740
S'there'
p1741
as(g1726
g1078
tp1742
(lp1743
g1079
as(g1671
g1471
tp1744
(lp1745
g1472
as(S'Why'
p1746
g867
tp1747
(lp1748
g217
as(g1681
g1684
tp1749
(lp1750
S'END'
p1751
as(S'planning'
p1752
S'for\xe2\x80\xa6'
p1753
tp1754
(lp1755
S'END'
p1756
as(g879
g882
tp1757
(lp1758
g1145
as(g334
S'your'
p1759
tp1760
(lp1761
S'deepest'
p1762
as(g449
S'Robin'
p1763
tp1764
(lp1765
S'Williams'
p1766
as(g1724
S'Scream'
p1767
tp1768
(lp1769
S'shit.'
p1770
as(g134
g137
tp1771
(lp1772
g767
as(S'what'
p1773
g628
tp1774
(lp1775
g629
ag1285
as(g137
g767
tp1776
(lp1777
g516
as(g1271
g2
tp1778
(lp1779
S'party?'
p1780
as(g582
g702
tp1781
(lp1782
S'you?'
p1783
as(g1403
S'doing'
p1784
tp1785
(lp1786
g364
as(g1613
S'another'
p1787
tp1788
(lp1789
S'flame'
p1790
as(S'to'
p1791
g1112
tp1792
(lp1793
g1044
as(g1784
g364
tp1794
(lp1795
g365
as(g294
g297
tp1796
(lp1797
g1074
as(S'But'
p1798
S'in'
p1799
tp1800
(lp1801
g1
as(S'NOW'
p1802
S'Your'
p1803
tp1804
(lp1805
S'mom'
p1806
ag1190
as(S'NOW'
p1807
S'Here,'
p1808
tp1809
(lp1810
S'you'
p1811
as(S'to'
p1812
g1242
tp1813
(lp1814
g1243
as(S'He'
p1815
S'says'
p1816
tp1817
(lp1818
g445
as(g1276
g1545
tp1819
(lp1820
g1138
as(g349
g789
tp1821
(lp1822
g790
aS'it.'
p1823
as(S'practice'
p1824
S'interview.'
p1825
tp1826
(lp1827
S'END'
p1828
as(S'come'
p1829
S'true.'
p1830
tp1831
(lp1832
S'END'
p1833
as(S'And'
p1834
S'remember,'
p1835
tp1836
(lp1837
g1729
as(S'Oh\xe2\x80\xa6'
p1838
S'you'
p1839
tp1840
(lp1841
g1569
as(g1168
g293
tp1842
(lp1843
g294
as(S'my'
p1844
S'closet?'
p1845
tp1846
(lp1847
S'END'
p1848
as(g173
g176
tp1849
(lp1850
g974
as(g1495
g1498
tp1851
(lp1852
S'with'
p1853
as(S'making'
p1854
S'memories.'
p1855
tp1856
(lp1857
S'END'
p1858
as(g709
g712
tp1859
(lp1860
g1560
as(g937
g708
tp1861
(lp1862
g709
as(S'fuckin'
p1863
g942
tp1864
(lp1865
g943
as(S'when'
p1866
S'you\xe2\x80\x99re'
p1867
tp1868
(lp1869
g732
as(S'I\xe2\x80\x99m'
p1870
S'testing'
p1871
tp1872
(lp1873
S'this'
p1874
as(S'that'
p1875
S'dream'
p1876
tp1877
(lp1878
g1829
as(g252
S'real'
p1879
tp1880
(lp1881
S'fun'
p1882
as(g249
g252
tp1883
(lp1884
g1879
as(g1278
g1281
tp1885
(lp1886
S'I\xe2\x80\x99ll'
p1887
as(g156
g1236
tp1888
(lp1889
S'on'
p1890
as(g1638
g57
tp1891
(lp1892
g58
as(g327
g263
tp1893
(lp1894
g264
as(g707
S'think'
p1895
tp1896
(lp1897
S'I\xe2\x80\x99m'
p1898
as(S'Python'
p1899
S'and'
p1900
tp1901
(lp1902
g1229
as(S'have'
p1903
S'going'
p1904
tp1905
(lp1906
S'on?'
p1907
as(g2
g1211
tp1908
(lp1909
g723
as(g1816
g445
tp1910
(lp1911
g446
as(S'BEGIN'
p1912
g1516
tp1913
(lp1914
g88
ag88
aS"That's"
p1915
ag970
aS'And'
p1916
aS'And'
p1917
aS'My'
p1918
ag152
ag1129
ag863
ag1083
aS'Oh,'
p1919
aS'And'
p1920
ag234
ag1364
ag886
ag1717
ag173
ag1609
ag303
ag1644
ag1803
ag857
aS'Long'
p1921
aS'It\xe2\x80\x99s'
p1922
ag1267
ag53
aS'Well'
p1923
aS'Will'
p1924
aS'I\xe2\x80\x99m'
p1925
ag1316
ag273
ag1681
aS'Just'
p1926
ag1838
ag928
ag88
ag1660
aS'Encore.'
p1927
aS'What\xe2\x80\x99s'
p1928
ag897
ag480
ag88
ag1870
ag620
aS'Bitchin.'
p1929
aS'If'
p1930
aS'YES!'
p1931
ag1704
ag88
ag1350
ag1499
ag1692
ag84
ag1700
aS'NAME3'
p1932
aS'He'
p1933
ag63
ag814
aS'Hey'
p1934
ag1412
aS'Right'
p1935
ag1798
ag341
ag88
ag915
ag503
ag223
ag639
aS'Oh.'
p1936
ag1566
ag259
ag188
ag1603
ag42
ag1746
ag88
aS'What\xe2\x80\x99s'
p1937
aS'It\xe2\x80\x99s'
p1938
ag88
ag1189
ag88
ag995
ag88
aS'It\xe2\x80\x99s'
p1939
aS'It\xe2\x80\x99s'
p1940
ag409
ag1688
ag31
ag1163
ag1555
aS'His'
p1941
ag1273
ag423
ag1696
aS'Oooh!'
p1942
ag603
ag1808
aS'What\xe2\x80\x99s'
p1943
aS'He'
p1944
ag1572
ag1030
aS'You'
p1945
ag1259
ag88
ag299
ag1815
ag747
aS'What'
p1946
aS'Well,'
p1947
ag1668
aS'Yeah,'
p1948
aS'You'
p1949
ag312
ag646
ag88
ag248
aS'That\xe2\x80\x99s'
p1950
aS'Well,'
p1951
aS'I\xe2\x80\x99m'
p1952
ag88
ag1158
aS'You'
p1953
ag1834
aS'Hey'
p1954
ag703
aS'You\xe2\x80\x99re'
p1955
ag1193
ag128
ag88
ag991
ag1449
ag1388
ag418
aS'We\xe2\x80\x99re'
p1956
ag1577
ag212
ag1185
ag589
aS'What'
p1957
ag78
ag1585
ag718
as(g1162
g1854
tp1958
(lp1959
g1855
as(S'Gypsy'
p1960
g177
tp1961
(lp1962
g178
as(g162
g1478
tp1963
(lp1964
S'friggin'
p1965
as(g1930
g88
tp1966
(lp1967
S'can'
p1968
as(S'NOW'
p1969
g1928
tp1970
(lp1971
g1464
ag379
aS'all'
p1972
aS'with'
p1973
as(g1806
g350
tp1974
(lp1975
g351
as(S'of'
p1976
g1247
tp1977
(lp1978
g1248
as(g1955
g307
tp1979
(lp1980
S'to'
p1981
as(g820
g1458
tp1982
(lp1983
g1512
as(S'worry'
p1984
S'about.'
p1985
tp1986
(lp1987
S'END'
p1988
as(g1596
g951
tp1989
(lp1990
g952
as(g1566
g1171
tp1991
(lp1992
g1172
as(S'NOW'
p1993
g1609
tp1994
(lp1995
g1610
as(g228
g231
tp1996
(lp1997
S'to'
p1998
ag1439
as(g967
S'all'
p1999
tp2000
(lp2001
S'haste!'
p2002
as(g1091
S'to'
p2003
tp2004
(lp2005
g643
as(g786
g1098
tp2006
(lp2007
g1354
as(g805
g598
tp2008
(lp2009
g599
as(g181
g1629
tp2010
(lp2011
g547
as(g512
g515
tp2012
(lp2013
g2
as(g543
g546
tp2014
(lp2015
g399
as(g1937
g1972
tp2016
(lp2017
S'this?'
p2018
as(g1953
S'got'
p2019
tp2020
(lp2021
S'tomorrow'
p2022
as(g292
g1043
tp2023
(lp2024
S'his'
p2025
as(S'heart,'
p2026
S'you\xe2\x80\x99re'
p2027
tp2028
(lp2029
g1217
as(g551
g1554
tp2030
(lp2031
S'END'
p2032
aS'END'
p2033
as(g719
g722
tp2034
(lp2035
S'NAME3,'
p2036
as(g1629
g547
tp2037
(lp2038
g548
as(g599
g602
tp2039
(lp2040
S'END'
p2041
as(S'know'
p2042
S'he\xe2\x80\x99s'
p2043
tp2044
(lp2045
S'delusional!'
p2046
as(S'you'
p2047
g1369
tp2048
(lp2049
S'me'
p2050
as(g1561
g1564
tp2051
(lp2052
S'END'
p2053
as(g262
g1984
tp2054
(lp2055
g1985
as(g216
S'NAME1.'
p2056
tp2057
(lp2058
S'END'
p2059
as(S'NOW'
p2060
g152
tp2061
(lp2062
g153
as(S'my'
p2063
g1650
tp2064
(lp2065
g1047
as(g1947
g570
tp2066
(lp2067
g571
as(g1176
g1179
tp2068
(lp2069
S'Boy?'
p2070
as(S'be'
p2071
S'and'
p2072
tp2073
(lp2074
S"there's"
p2075
as(g395
g398
tp2076
(lp2077
g1863
as(S'to'
p2078
S'dream'
p2079
tp2080
(lp2081
S'END'
p2082
as(g1799
g1
tp2083
(lp2084
g2
as(g432
g1059
tp2085
(lp2086
g450
as(g856
S'your'
p2087
tp2088
(lp2089
g1546
as(g242
g440
tp2090
(lp2091
g441
aS'brain'
p2092
ag1845
as(g1436
g552
tp2093
(lp2094
g553
as(g1483
g1486
tp2095
(lp2096
S'system.'
p2097
as(S'down'
p2098
S'here.'
p2099
tp2100
(lp2101
S'END'
p2102
as(g244
g247
tp2103
(lp2104
g1277
as(g670
S'and'
p2105
tp2106
(lp2107
S'trying'
p2108
as(S'NOW'
p2109
g1935
tp2110
(lp2111
g2098
as(S'my'
p2112
S'birthday'
p2113
tp2114
(lp2115
g521
as(g27
g30
tp2116
(lp2117
S'pitiful'
p2118
as(g1512
g1515
tp2119
(lp2120
g2
as(g1071
S'so'
p2121
tp2122
(lp2123
S'early'
p2124
as(S'spit'
p2125
S'foam'
p2126
tp2127
(lp2128
S'death'
p2129
as(g1738
g1741
tp2130
(lp2131
S'tonite!!'
p2132
as(g941
g1481
tp2133
(lp2134
g1672
as(g114
g117
tp2135
(lp2136
S'of'
p2137
as(g1895
g1898
tp2138
(lp2139
g1504
as(S'me'
p2140
g1866
tp2141
(lp2142
g1867
as(g1915
S'when'
p2143
tp2144
(lp2145
g88
as(g1353
g1346
tp2146
(lp2147
g253
as(g451
g454
tp2148
(lp2149
g2
as(g863
g866
tp2150
(lp2151
g1222
as(g1088
g1423
tp2152
(lp2153
g1424
as(S'the'
p2154
g1358
tp2155
(lp2156
g36
as(g1766
g182
tp2157
(lp2158
g183
as(g2019
g2022
tp2159
(lp2160
g1812
as(g2025
g1960
tp2161
(lp2162
g177
as(g1956
g427
tp2163
(lp2164
g946
as(S'NOW'
p2165
g1158
tp2166
(lp2167
g1159
as(g1194
g1063
tp2168
(lp2169
g1064
as(S'NOW'
p2170
g1932
tp2171
(lp2172
g1725
as(g88
g1968
tp2173
(lp2174
g1000
ag244
as(g1148
g681
tp2175
(lp2176
g238
as(g464
g903
tp2177
(lp2178
g904
as(S'he'
p2179
g1903
tp2180
(lp2181
g1904
as(g667
g670
tp2182
(lp2183
g2105
as(g1335
S"you're"
p2184
tp2185
(lp2186
g394
as(g895
g1180
tp2187
(lp2188
g1181
as(g371
g26
tp2189
(lp2190
g27
as(g1939
g1482
tp2191
(lp2192
g1483
as(g2
g665
tp2193
(lp2194
g47
as(g1478
g1965
tp2195
(lp2196
S'appointment!'
p2197
as(g1486
g2097
tp2198
(lp2199
S'END'
p2200
as(g1218
g1221
tp2201
(lp2202
S'END'
p2203
as(g221
g157
tp2204
(lp2205
g158
as(S'NOW'
p2206
g1921
tp2207
(lp2208
g826
as(g1853
S'Robin'
p2209
tp2210
(lp2211
S'Williams.'
p2212
as(g2
g104
tp2213
(lp2214
g105
as(g299
g93
tp2215
(lp2216
g94
as(g1876
g1829
tp2217
(lp2218
g1830
as(S'NOW'
p2219
g1923
tp2220
(lp2221
g955
as(g1368
g1115
tp2222
(lp2223
g1116
ag1866
as(g168
g171
tp2224
(lp2225
g2078
as(g2113
g521
tp2226
(lp2227
g522
as(g770
g773
tp2228
(lp2229
g1068
as(g1127
S'his'
p2230
tp2231
(lp2232
S'stand'
p2233
as(g694
g73
tp2234
(lp2235
g74
as(g1762
g2026
tp2236
(lp2237
g2027
as(g400
g403
tp2238
(lp2239
S'END'
p2240
as(g587
g1463
tp2241
(lp2242
g918
as(S'NOW'
p2243
g970
tp2244
(lp2245
g971
ag88
ag88
ag1773
ag821
ag996
ag1835
ag129
as(g814
g817
tp2246
(lp2247
g1446
as(g1759
g1762
tp2248
(lp2249
g2026
as(g1016
g593
tp2250
(lp2251
g594
as(g1350
g1353
tp2252
(lp2253
g1346
as(g268
g271
tp2254
(lp2255
S'END'
p2256
as(g775
g778
tp2257
(lp2258
g783
ag1641
as(g1932
g1725
tp2259
(lp2260
g1726
as(g2184
g394
tp2261
(lp2262
g395
as(g1653
g2
tp2263
(lp2264
g978
as(g1258
g384
tp2265
(lp2266
g385
as(g2
S'company.'
p2267
tp2268
(lp2269
S'END'
p2270
as(g1159
g1162
tp2271
(lp2272
g1854
as(g1879
g1882
tp2273
(lp2274
S'to'
p2275
as(g1668
g1671
tp2276
(lp2277
g1471
as(g712
g1560
tp2278
(lp2279
g1561
as(g1092
g1095
tp2280
(lp2281
S'moment...'
p2282
as(g672
g675
tp2283
(lp2284
S'END'
p2285
as(g2126
g2129
tp2286
(lp2287
S'gaaaa!!!!!!!"'
p2288
as(g589
g592
tp2289
(lp2290
g1336
as(g1874
g1289
tp2291
(lp2292
g1290
as(g1949
S'don\xe2\x80\x99t'
p2293
tp2294
(lp2295
g281
as(g2293
g281
tp2296
(lp2297
g163
as(g1190
g335
tp2298
(lp2299
g336
as(g908
g911
tp2300
(lp2301
S'END'
p2302
as(g231
g1998
tp2303
(lp2304
g1582
as(S'NOW'
p2305
g1083
tp2306
(lp2307
g1084
aS'my'
p2308
ag410
as(S'NOW'
p2309
g1388
tp2310
(lp2311
g1175
as(S'NOW'
p2312
g886
tp2313
(lp2314
g887
ag883
ag929
ag1689
ag2042
ag2293
ag2019
as(S'left'
p2315
g923
tp2316
(lp2317
g924
as(g1084
g1087
tp2318
(lp2319
S'soul.'
p2320
ag1423
as(g1887
g6
tp2321
(lp2322
g7
as(S'Band'
p2323
g1737
tp2324
(lp2325
g1738
as(g1369
g2050
tp2326
(lp2327
g2
as(g1610
g1613
tp2328
(lp2329
g1787
as(g1632
g284
tp2330
(lp2331
g285
ag635
as(S'NOW'
p2332
g1915
tp2333
(lp2334
g2143
as(g1916
g88
tp2335
(lp2336
g1329
aS'fumbled'
p2337
as(g1600
g1027
tp2338
(lp2339
g1099
as(g1446
g109
tp2340
(lp2341
g110
as(g1787
g1790
tp2342
(lp2343
g662
as(g1945
g2042
tp2344
(lp2345
g2043
as(S'does'
p2346
g2179
tp2347
(lp2348
g1903
as(g122
g1490
tp2349
(lp2350
g1491
as(S'don\xe2\x80\x99t'
p2351
S'tell'
p2352
tp2353
(lp2354
g2140
as(g1928
g1464
tp2355
(lp2356
g1465
as(g100
g103
tp2357
(lp2358
g832
as(S'reality'
p2359
S'series!'
p2360
tp2361
(lp2362
S'END'
p2363
as(g991
g994
tp2364
(lp2365
g1623
as(S'NOW'
p2366
g1927
tp2367
(lp2368
S'END'
p2369
as(g1324
g1254
tp2370
(lp2371
g1255
as(g1935
g2098
tp2372
(lp2373
g2099
as(g515
g2
tp2374
(lp2375
g428
ag1142
as(g1034
g1037
tp2376
(lp2377
g1092
as(g2121
g2124
tp2378
(lp2379
S'in'
p2380
as(S'NOW'
p2381
g1925
tp2382
(lp2383
S'broke.'
p2384
ag1871
ag560
ag798
as(g2022
g1812
tp2385
(lp2386
g1242
aS'start'
p2387
as(g2027
g1217
tp2388
(lp2389
g1218
as(g747
g750
tp2390
(lp2391
S'END'
p2392
as(g1029
g1622
tp2393
(lp2394
g1720
as(g999
g321
tp2395
(lp2396
g322
as(g2108
g1791
tp2397
(lp2398
g1112
aS'make'
p2399
ag1375
as(g1027
g1099
tp2400
(lp2401
g1100
as(g1491
g1494
tp2402
(lp2403
S'END'
p2404
as(g1946
S'else'
p2405
tp2406
(lp2407
g2346
as(g1415
g1528
tp2408
(lp2409
g1653
ag2071
as(g88
g2337
tp2410
(lp2411
g1024
as(g1120
g1123
tp2412
(lp2413
g615
as(g1556
g1559
tp2414
(lp2415
S'is'
p2416
as(g1944
g460
tp2417
(lp2418
g461
as(S'NOW'
p2419
g1267
tp2420
(lp2421
g1268
as(g1938
g2
tp2422
(lp2423
g1824
as(g1968
g1000
tp2424
(lp2425
g1001
as(g2
g1780
tp2426
(lp2427
S'END'
p2428
aS'END'
p2429
as(S'so'
p2430
S'far.'
p2431
tp2432
(lp2433
S'END'
p2434
as(S'NOW'
p2435
g1364
tp2436
(lp2437
g1365
ag2047
as(g30
g2118
tp2438
(lp2439
g2125
as(g1329
g1332
tp2440
(lp2441
g1311
as(g2416
S'his'
p2442
tp2443
(lp2444
S'stand'
p2445
as(g866
g1222
tp2446
(lp2447
g1223
as(g2
g349
tp2448
(lp2449
g789
as(g2118
g2125
tp2450
(lp2451
g2126
as(g1226
S'three?'
p2452
tp2453
(lp2454
S'END'
p2455
as(g1835
g1729
tp2456
(lp2457
g1730
as(g103
g832
tp2458
(lp2459
g833
as(g213
g216
tp2460
(lp2461
g2056
as(S'NOW'
p2462
g1555
tp2463
(lp2464
g1556
as(g1515
g2
tp2465
(lp2466
g2359
as(g741
g744
tp2467
(lp2468
S'END'
p2469
as(g892
g895
tp2470
(lp2471
g1180
as(S'NOW'
p2472
g1941
tp2473
(lp2474
S'understudy'
p2475
as(g1419
g1422
tp2476
(lp2477
S'daddy.'
p2478
as(S'show'
p2479
g1536
tp2480
(lp2481
g1537
as(g2050
g2
tp2482
(lp2483
S'party?'
p2484
as(S'NOW'
p2485
g1931
tp2486
(lp2487
S'END'
p2488
as(g72
g359
tp2489
(lp2490
g360
as(g533
g536
tp2491
(lp2492
g874
as(g1839
g1569
tp2493
(lp2494
g2
as(S'NOW'
p2495
g915
tp2496
(lp2497
g118
as(g870
g873
tp2498
(lp2499
S'END'
p2500
as(g1323
g2071
tp2501
(lp2502
g2072
ag2230
as(g1404
g774
tp2503
(lp2504
g775
as(g489
g492
tp2505
(lp2506
g372
as(g1142
g608
tp2507
(lp2508
g609
as(g1463
g918
tp2509
(lp2510
g919
as(g1689
g574
tp2511
(lp2512
g575
as(g88
g133
tp2513
(lp2514
g134
ag684
as(g1223
g1226
tp2515
(lp2516
g2452
as(g1519
g1875
tp2517
(lp2518
g1876
as(g722
g2036
tp2519
(lp2520
g693
as(g685
g688
tp2521
(lp2522
g1656
as(g1475
g1028
tp2523
(lp2524
S'END'
p2525
as(g1123
g615
tp2526
(lp2527
g616
as(g376
g1017
tp2528
(lp2529
g1018
as(g124
g127
tp2530
(lp2531
g1638
as(g1116
g1119
tp2532
(lp2533
S'had'
p2534
as(g1236
g1890
tp2535
(lp2536
g2154
as(g1281
g1887
tp2537
(lp2538
g6
as(g247
g1277
tp2539
(lp2540
g1278
as(g861
S'you'
p2541
tp2542
(lp2543
g1197
as(g934
g937
tp2544
(lp2545
g708
as(g7
g10
tp2546
(lp2547
g870
as(g1593
g1596
tp2548
(lp2549
g951
as(g1248
g1251
tp2550
(lp2551
g713
as(g897
g900
tp2552
(lp2553
S'END'
p2554
aS'END'
p2555
as(g1622
g1720
tp2556
(lp2557
g1721
as(g1943
g1973
tp2558
(lp2559
g389
as(g5
g1091
tp2560
(lp2561
g2003
as(S'NOW'
p2562
g1948
tp2563
(lp2564
g88
as(g1522
S'whimpering.'
p2565
tp2566
(lp2567
S'END'
p2568
as(g737
g2323
tp2569
(lp2570
g1737
as(g2092
S'where'
p2571
tp2572
(lp2573
g1319
as(g1216
g2430
tp2574
(lp2575
g2431
as(g752
g532
tp2576
(lp2577
g533
as(g1007
S'with'
p2578
tp2579
(lp2580
g537
as(g303
g306
tp2581
(lp2582
g1419
as(g1803
g1806
tp2583
(lp2584
g350
as(g119
g122
tp2585
(lp2586
g1490
as(g994
g1623
tp2587
(lp2588
g1624
as(g1950
S'the'
p2589
tp2590
(lp2591
S'spirit.'
p2592
as(g874
g877
tp2593
(lp2594
g1282
as(g1660
g1663
tp2595
(lp2596
S'END'
p2597
as(S'NOW'
p2598
g1918
tp2599
(lp2600
S'toy!!'
p2601
as(g88
g1294
tp2602
(lp2603
g1295
ag2063
as(g624
g627
tp2604
(lp2605
g938
as(g2143
g88
tp2606
(lp2607
g168
ag579
as(g1922
g2112
tp2608
(lp2609
g2113
as(g932
S'the'
p2610
tp2611
(lp2612
S'value'
p2613
as(g751
g1188
tp2614
(lp2615
S'END'
p2616
as(g850
g11
tp2617
(lp2618
g12
as(S'NOW'
p2619
g1922
tp2620
(lp2621
g2112
ag2
ag1482
ag99
ag79
ag1586
as(S'NOW'
p2622
g31
tp2623
(lp2624
g32
ag570
aS'just'
p2625
as(g912
g583
tp2626
(lp2627
g584
as(g1068
g1071
tp2628
(lp2629
g2121
as(g1867
g732
tp2630
(lp2631
g21
as(g2399
g1641
tp2632
(lp2633
g330
as(g642
g967
tp2634
(lp2635
g1999
as(g1295
g1204
tp2636
(lp2637
g1205
as(g1060
g1052
tp2638
(lp2639
g1053
as(g1952
g798
tp2640
(lp2641
g666
as(S'NOW'
p2642
g1499
tp2643
(lp2644
g138
ag655
as(g2445
S'in.'
p2645
tp2646
(lp2647
S'END'
p2648
aS'END'
p2649
as(g355
g358
tp2650
(lp2651
g1597
as(g1951
g2625
tp2652
(lp2653
g542
as(g232
g1439
tp2654
(lp2655
g2
as(g1172
g470
tp2656
(lp2657
g471
as(g2589
g2592
tp2658
(lp2659
S'END'
p2660
as(g1921
g826
tp2661
(lp2662
g827
as(g2124
g2380
tp2663
(lp2664
g497
as(g446
g449
tp2665
(lp2666
g1763
as(g1043
g2025
tp2667
(lp2668
g1960
as(g1954
g902
tp2669
(lp2670
g1013
as(g1973
g389
tp2671
(lp2672
g390
as(S'NOW'
p2673
g1936
tp2674
(lp2675
S'END'
p2676
as(S'NOW'
p2677
g1929
tp2678
(lp2679
S'END'
p2680
as(g218
g221
tp2681
(lp2682
g157
as(g1904
g1907
tp2683
(lp2684
S'END'
p2685
as(g1790
g662
tp2686
(lp2687
g2
as(g1079
g1082
tp2688
(lp2689
g623
as(g1208
g1976
tp2690
(lp2691
g1247
as(g1179
g2070
tp2692
(lp2693
S'END'
p2694
as(g171
g2078
tp2695
(lp2696
g2079
as(g336
g339
tp2697
(lp2698
S'you'
p2699
as(S'NOW'
p2700
g1316
tp2701
(lp2702
g475
as(g474
g16
tp2703
(lp2704
g17
as(g1293
S'of'
p2705
tp2706
(lp2707
S'Monty'
p2708
as(g1230
g1233
tp2709
(lp2710
S'END'
p2711
as(g702
g1783
tp2712
(lp2713
S'END'
p2714
as(S'NOW'
p2715
g1193
tp2716
(lp2717
g1194
as(g459
g2387
tp2718
(lp2719
g1752
as(S'to'
p2720
S'run'
p2721
tp2722
(lp2723
g2
as(g1998
g1582
tp2724
(lp2725
g565
as(g2105
g2108
tp2726
(lp2727
g1791
as(g2610
g2613
tp2728
(lp2729
g671
as(g1157
g2092
tp2730
(lp2731
g2571
as(g88
g1522
tp2732
(lp2733
g2565
as(g88
g840
tp2734
(lp2735
g2
as(g1871
g1874
tp2736
(lp2737
g1289
as(g2475
S'if'
p2738
tp2739
(lp2740
g808
as(g677
g680
tp2741
(lp2742
g1033
as(g1941
g2475
tp2743
(lp2744
g2738
as(g1129
g891
tp2745
(lp2746
g892
as(g2129
g2288
tp2747
(lp2748
S'END'
p2749
as(g1940
g99
tp2750
(lp2751
g100
as(g661
g856
tp2752
(lp2753
g2087
as(g88
g1519
tp2754
(lp2755
g1875
as(g842
g651
tp2756
(lp2757
g652
as(g1767
g1770
tp2758
(lp2759
S'END'
p2760
as(g2
g1339
tp2761
(lp2762
g1340
as(g1205
g1208
tp2763
(lp2764
g1976
as(g373
g376
tp2765
(lp2766
g1017
as(g1145
g1148
tp2767
(lp2768
g681
as(g1965
g2197
tp2769
(lp2770
S'END'
p2771
as(g2442
g2445
tp2772
(lp2773
g2645
aS'in.'
p2774
as(g1933
g488
tp2775
(lp2776
g489
as(g564
g483
tp2777
(lp2778
g484
as(g929
g932
tp2779
(lp2780
g2610
as(S'NOW'
p2781
g718
tp2782
(lp2783
g719
as(g1696
g1699
tp2784
(lp2785
S'Robin\xe2\x80\xa6'
p2786
as(S'NOW'
p2787
g1700
tp2788
(lp2789
g2
ag845
ag2405
aS'the'
p2790
as(S'NOW'
p2791
g1942
tp2792
(lp2793
S'END'
p2794
as(g2721
g2
tp2795
(lp2796
g2267
as(g1053
g1056
tp2797
(lp2798
g1592
as(g952
g326
tp2799
(lp2800
g327
as(g616
g619
tp2801
(lp2802
g2
as(g797
g2720
tp2803
(lp2804
g2721
as(g2708
g1899
tp2805
(lp2806
g1900
as(S'NOW'
p2807
g1603
tp2808
(lp2809
g1604
as(g1056
g1592
tp2810
(lp2811
g1593
as(S'NOW'
p2812
g1838
tp2813
(lp2814
g1839
as(g1559
g2416
tp2815
(lp2816
g2442
as(g2036
g693
tp2817
(lp2818
g694
as(g1547
g1149
tp2819
(lp2820
g1150
as(g2
g2359
tp2821
(lp2822
g2360
as(g2
g1382
tp2823
(lp2824
S'END'
p2825
as(g2337
g1024
tp2826
(lp2827
g878
as(g1013
g1016
tp2828
(lp2829
g593
as(g724
g88
tp2830
(lp2831
S'find'
p2832
as(g2405
g2346
tp2833
(lp2834
g2179
as(g1059
g450
tp2835
(lp2836
g451
as(g1699
g2786
tp2837
(lp2838
S'END'
p2839
as(g858
g861
tp2840
(lp2841
g2541
as(g2541
g1197
tp2842
(lp2843
g1107
as(g975
g933
tp2844
(lp2845
g934
ag634
as(g1898
g1504
tp2846
(lp2847
g1505
as(g561
g564
tp2848
(lp2849
g483
as(g1972
g2018
tp2850
(lp2851
S'END'
p2852
as(g849
g1403
tp2853
(lp2854
g1784
aS'in'
p2855
as(g88
g1521
tp2856
(lp2857
g837
as(g466
g469
tp2858
(lp2859
S'END'
p2860
as(g2
g1824
tp2861
(lp2862
g1825
ag1495
as(g2571
g1319
tp2863
(lp2864
g1320
as(g794
g797
tp2865
(lp2866
g2720
as(g1604
g2
tp2867
(lp2868
g316
ag1211
as(g2613
g671
tp2869
(lp2870
g672
as(g2625
g542
tp2871
(lp2872
g543
as(g1923
g955
tp2873
(lp2874
g956
as(g1520
g684
tp2875
(lp2876
g685
as(g996
g999
tp2877
(lp2878
g321
as(g144
g147
tp2879
(lp2880
g794
as(g1306
g197
tp2881
(lp2882
g198
as(g1422
g2478
tp2883
(lp2884
S'END'
p2885
as(g1721
g1724
tp2886
(lp2887
g1767
as(g183
g186
tp2888
(lp2889
g1124
as(g471
g474
tp2890
(lp2891
g16
as(g496
g528
tp2892
(lp2893
g689
as(g398
g1863
tp2894
(lp2895
g942
as(g259
g262
tp2896
(lp2897
g1984
as(g1918
g2601
tp2898
(lp2899
S'END'
p2900
as(g1498
g1853
tp2901
(lp2902
g2209
as(g1920
g1773
tp2903
(lp2904
g628
as(g148
g151
tp2905
(lp2906
S'END'
p2907
as(g517
g520
tp2908
(lp2909
g841
as(g1087
g2320
tp2910
(lp2911
S'END'
p2912
as(g877
g1282
tp2913
(lp2914
g227
as(g1730
g455
tp2915
(lp2916
g456
as(g1184
g1216
tp2917
(lp2918
g2430
as(g717
g676
tp2919
(lp2920
g677
as(g2387
g1752
tp2921
(lp2922
g1753
as(g1925
g2384
tp2923
(lp2924
S'END'
p2925
as(S'NOW'
p2926
g1798
tp2927
(lp2928
g1799
ag249
as(g2738
g808
tp2929
(lp2930
g809
as(g1948
g88
tp2931
(lp2932
g1398
as(S'NOW'
p2933
g620
tp2934
(lp2935
g123
ag88
as(g1741
g2132
tp2936
(lp2937
S'END'
p2938
as(g1533
g985
tp2939
(lp2940
g986
as(g2
g1007
tp2941
(lp2942
g2578
as(g1051
g1335
tp2943
(lp2944
g2184
as(g88
g1398
tp2945
(lp2946
g414
as(g1119
g2534
tp2947
(lp2948
S'to'
p2949
as(g704
g707
tp2950
(lp2951
g1895
as(g2949
g1379
tp2952
(lp2953
g2
as(S'NOW'
p2954
g646
tp2955
(lp2956
g647
ag2589
ag1578
ag213
as(g1999
g2002
tp2957
(lp2958
S'END'
p2959
as(g2534
g2949
tp2960
(lp2961
g1379
as(g69
g72
tp2962
(lp2963
g359
as(g1290
g1293
tp2964
(lp2965
g2705
as(g745
g1632
tp2966
(lp2967
g284
as(g2
g758
tp2968
(lp2969
g1404
as(g2137
g1823
tp2970
(lp2971
S'END'
p2972
as(g1624
g2
tp2973
(lp2974
g2479
as(g986
g989
tp2975
(lp2976
g1307
ag1358
as(g315
g143
tp2977
(lp2978
g144
as(g2072
g2075
tp2979
(lp2980
g2
as(g2578
g537
tp2981
(lp2982
g538
as(g943
g2
tp2983
(lp2984
g1168
as(S'NOW'
p2985
g1926
tp2986
(lp2987
g2351
ag43
as(g1704
g1370
tp2988
(lp2989
g1371
as(g426
g737
tp2990
(lp2991
g2323
as(g1395
g960
tp2992
(lp2993
g961
as(g2
g428
tp2994
(lp2995
g429
as(g867
g217
tp2996
(lp2997
g218
as(g1004
g1306
tp2998
(lp2999
g197
as(S'NOW'
p3000
g1933
tp3001
(lp3002
g488
ag604
ag460
ag1816
as(g1926
g2351
tp3003
(lp3004
g2352
as(g2087
g1546
tp3005
(lp3006
g1547
as(g2043
g2046
tp3007
(lp3008
S'END'
p3009
as(g2209
g2212
tp3010
(lp3011
S'END'
p3012
as(g652
g2
tp3013
(lp3014
g268
as(g1095
g2282
tp3015
(lp3016
S'END'
p3017
as(S'NOW'
p3018
g312
tp3019
(lp3020
g88
as(g1900
g1229
tp3021
(lp3022
g1230
as(g2
g2479
tp3023
(lp3024
g1536
as(g1811
g2315
tp3025
(lp3026
g923
as(g1452
g2855
tp3027
(lp3028
g1844
as(g2705
g2708
tp3029
(lp3030
g1899
as(g1808
g1811
tp3031
(lp3032
g2315
as(g2003
g643
tp3033
(lp3034
g529
as(g331
g334
tp3035
(lp3036
g1759
as.