(dp0
(S'character'
p1
S'we'
p2
tp3
(lp4
S'see'
p5
as(S'opens'
p6
S'the'
p7
tp8
(lp9
S'door,'
p10
as(S'hear'
p11
S'you'
p12
tp13
(lp14
S'breathing'
p15
as(S'door,'
p16
S'begin'
p17
tp18
(lp19
S'opening'
p20
as(S'purge,'
p21
S'and'
p22
tp23
(lp24
S'they'
p25
as(S'NAME1'
p26
S'lounges'
p27
tp28
(lp29
S'in'
p30
as(S'I'
p31
S"can't"
p32
tp33
(lp34
S'hear'
p35
ag11
as(S'pans'
p36
S'up'
p37
tp38
(lp39
S'and'
p40
as(S'and'
p41
S'NAME4'
p42
tp43
(lp44
S'on'
p45
aS'with'
p46
aS'are'
p47
as(S'move'
p48
S'until'
p49
tp50
(lp51
S'it\xe2\x80\x99s'
p52
as(S'towards'
p53
S'Ground'
p54
tp55
(lp56
S'Floor.'
p57
as(S'runs'
p58
S'back'
p59
tp60
(lp61
S'out'
p62
as(S'begins'
p63
S'looking'
p64
tp65
(lp66
S'down'
p67
as(S'down'
p68
S'at'
p69
tp70
(lp71
S'the'
p72
as(S'have'
p73
S'him'
p74
tp75
(lp76
S'fill'
p77
as(S'the'
p78
S'ladder'
p79
tp80
(lp81
S'painting.'
p82
as(S'areal'
p83
S'shot,'
p84
tp85
(lp86
S'slowly'
p87
as(S'on'
p88
S'a'
p89
tp90
(lp91
S'bench'
p92
aS'book'
p93
aS'successful'
p94
as(S'fairly'
p95
S'unnoticed,'
p96
tp97
(lp98
S'framing'
p99
as(S'pause'
p100
S'as'
p101
tp102
(lp103
S'NAME1'
p104
as(S'up,'
p105
S'scrawled'
p106
tp107
(lp108
S'across'
p109
as(S'runs'
p110
S'down'
p111
tp112
(lp113
S'the'
p114
as(S'NOW'
p115
S'The'
p116
tp117
(lp118
S'camera'
p119
aS'first'
p120
aS'Camera'
p121
aS'camera'
p122
aS'camera'
p123
aS'camera'
p124
aS'camera'
p125
aS'conversation'
p126
aS'camera'
p127
aS'camera'
p128
aS'camera'
p129
aS'singing'
p130
aS'camera'
p131
aS'camera'
p132
aS'whole'
p133
aS'parents'
p134
aS'parents'
p135
aS'kids'
p136
aS'camera'
p137
aS'camera'
p138
as(S'kid'
p139
S'playing'
p140
tp141
(lp142
S'with'
p143
as(S'NAME1'
p144
S'looking'
p145
tp146
(lp147
S'at'
p148
as(S'on'
p149
S'rhythm.'
p150
tp151
(lp152
S'END'
p153
as(S'do'
p154
S'some'
p155
tp156
(lp157
S'sort'
p158
as(g122
S'will'
p159
tp160
(lp161
g154
aS'follow'
p162
aS'slowly'
p163
aS'begin'
p164
aS'go'
p165
aS'follow'
p166
aS'pan'
p167
aS'drop'
p168
ag73
aS'focus'
p169
as(S'without'
p170
S'getting'
p171
tp172
(lp173
S'his'
p174
as(g12
g15
tp175
(lp176
S'this'
p177
as(S'frantically'
p178
S'scrambling'
p179
tp180
(lp181
S'to'
p182
as(S'suggest'
p183
S'another'
p184
tp185
(lp186
S'episode.'
p187
as(S'over,'
p188
S'barely'
p189
tp190
(lp191
S'acknowledging'
p192
as(S'NOW'
p193
S'it'
p194
tp195
(lp196
S'begins,'
p197
as(S'Primal'
p198
S'Scream'
p199
tp200
(lp201
S'Therapy'
p202
as(S'back'
p203
S'out,'
p204
tp205
(lp206
S'keeping'
p207
as(S'they'
p208
S'get'
p209
tp210
(lp211
S'to'
p212
as(S'will'
p213
S'glance'
p214
tp215
(lp216
S'over,'
p217
as(S'NAME3'
p218
S'entering'
p219
tp220
(lp221
S'the'
p222
as(S'see'
p223
S'NAME4'
p224
tp225
(lp226
S'at'
p227
aS'and'
p228
as(S'He'
p229
S'slowly'
p230
tp231
(lp232
S'leaves'
p233
as(S'standing'
p234
S'right'
p235
tp236
(lp237
S'behind'
p238
as(S'He'
p239
S'closes'
p240
tp241
(lp242
S'the'
p243
as(S'The'
p244
g121
tp245
(lp246
S'will'
p247
as(g199
g202
tp248
(lp249
S'END'
p250
as(S'picks'
p251
S'up'
p252
tp253
(lp254
S'flannel'
p255
aS'the'
p256
as(S'joins'
p257
S'in'
p258
tp259
(lp260
g149
as(S'NOW'
p261
g31
tp262
(lp263
g32
aS"can't"
p264
as(S'understand'
p265
S'what'
p266
tp267
(lp268
S"he's"
p269
as(S'looking'
p270
S'over,'
p271
tp272
(lp273
S'happy'
p274
as(S'sisters'
p275
S'will'
p276
tp277
(lp278
S'be'
p279
as(S'take'
p280
S'him'
p281
tp282
(lp283
S'all'
p284
as(S'NAME4'
p285
S'through'
p286
tp287
(lp288
S'the'
p289
as(S'hand'
p290
S'out,'
p291
tp292
(lp293
S'and'
p294
as(S'NOW'
p295
S"He's"
p296
tp297
(lp298
S'got'
p299
as(S'he'
p300
S'goes'
p301
tp302
(lp303
S'inside'
p304
aS'on,'
p305
aS'to'
p306
as(S'begin'
p307
S'twirling'
p308
tp309
(lp310
S'it.'
p311
as(S'3,'
p312
S'and'
p313
tp314
(lp315
S'cautiously'
p316
as(S'throw'
p317
S'it'
p318
tp319
(lp320
S'out'
p321
as(g119
g63
tp322
(lp323
g64
as(S'the'
p324
S'large'
p325
tp326
(lp327
g16
as(S'church,'
p328
S'and'
p329
tp330
(lp331
S'in'
p332
as(S'phone'
p333
S'call'
p334
tp335
(lp336
S'from'
p337
as(S'ends,'
p338
S'NAME1'
p339
tp340
(lp341
S'will'
p342
as(S'NAME2,'
p343
S'looking'
p344
tp345
(lp346
S'into'
p347
as(S'as'
p348
S'Monty'
p349
tp350
(lp351
S'Python'
p352
as(S'of'
p353
S'NAME2'
p354
tp355
(lp356
S'he'
p357
as(S'gives'
p358
g89
tp359
(lp360
S'strange'
p361
as(S'barely'
p362
S'echoing'
p363
tp364
(lp365
S'Bill'
p366
as(S'playing'
p367
S'once'
p368
tp369
(lp370
S'the'
p371
as(S'and'
p372
S'focus'
p373
tp374
(lp375
S'on'
p376
as(S'He'
p377
g257
tp378
(lp379
g258
as(S'chance'
p380
S'to'
p381
tp382
(lp383
S'see'
p384
as(S'and'
p385
g307
tp386
(lp387
g308
aS'jabbering'
p388
as(S'NAME4'
p389
S'watching'
p390
tp391
(lp392
S'monty'
p393
as(S'the'
p394
S'unmute'
p395
tp396
(lp397
S'button'
p398
as(S'tour'
p399
S'of'
p400
tp401
(lp402
S'the'
p403
as(S'later'
p404
S'date.'
p405
tp406
(lp407
S'END'
p408
as(g281
g284
tp409
(lp410
S'the'
p411
as(S'he'
p412
S'comes'
p413
tp414
(lp415
S'into'
p416
as(g318
g321
tp417
(lp418
S'the'
p419
aS'as'
p420
as(S'the'
p421
S'wood'
p422
tp423
(lp424
S'grain,'
p425
as(S'credits'
p426
S'roll.'
p427
tp428
(lp429
S'END'
p430
as(S'that'
p431
S"it's"
p432
tp433
(lp434
S'NAME3.)'
p435
as(S'of'
p436
S'the'
p437
tp438
(lp439
S'porch.'
p440
aS'bay.'
p441
aS'crackhouse.'
p442
aS'hallway,'
p443
aS'walls.'
p444
as(S'door,'
p445
S'and'
p446
tp447
(lp448
S'get'
p449
aS'NAME3'
p450
as(S'NOW'
p451
S'(Back'
p452
tp453
(lp454
S'to'
p455
as(S'floor'
p456
S'and'
p457
tp458
(lp459
S'screams'
p460
as(S'his'
p461
S'rage,'
p462
tp463
(lp464
S'and'
p465
as(S'1920s'
p466
S'it'
p467
tp468
(lp469
S'was'
p470
as(g416
S'view.'
p471
tp472
(lp473
S'END'
p474
as(S'NOW'
p475
S'As'
p476
tp477
(lp478
S'NAME3'
p479
as(S'very'
p480
S'slowly'
p481
tp482
(lp483
S'and'
p484
as(S'NOW'
p485
S'This'
p486
tp487
(lp488
S'will'
p489
aS'sequence'
p490
as(g89
S'random'
p491
tp492
(lp493
g139
as(S'guitar'
p494
S'and'
p495
tp496
(lp497
S'jumps'
p498
as(S'becomes'
p499
S'very'
p500
tp501
(lp502
S'blank.'
p503
as(S'comment'
p504
S'is'
p505
tp506
(lp507
S'met'
p508
as(S'The'
p509
g126
tp510
(lp511
S'between'
p512
as(g269
S'talking'
p513
tp514
(lp515
S'about.'
p516
as(S'will'
p517
g162
tp518
(lp519
S'NAME1'
p520
aS'NAME2'
p521
as(S'meaningless'
p522
S'jibberish.'
p523
tp524
(lp525
S'END'
p526
as(S'NOW'
p527
S'We'
p528
tp529
(lp530
S'look'
p531
aS'pan'
p532
aS'will'
p533
as(S'get'
p534
S'him'
p535
tp536
(lp537
S'sillhouetted'
p538
as(S'left'
p539
S'and'
p540
tp541
(lp542
S'approach'
p543
as(S'and'
p544
S'runs'
p545
tp546
(lp547
S'inside'
p548
ag111
as(S'It\xe2\x80\x99ll'
p549
S'zoom'
p550
tp551
(lp552
S'in'
p553
as(S'and'
p554
S'glances'
p555
tp556
(lp557
S'up'
p558
as(S'holding'
p559
S'up'
p560
tp561
(lp562
S'book)'
p563
as(g89
g92
tp564
(lp565
S'by'
p566
as(S'is'
p567
S'gathered'
p568
tp569
(lp570
S'around'
p571
as(S'NOW'
p572
S'Just'
p573
tp574
(lp575
S'picks'
p576
as(S'door'
p577
S'3'
p578
tp579
(lp580
S'into'
p581
as(S'it,'
p582
S'hold'
p583
tp584
(lp585
S'his'
p586
as(g363
g366
tp587
(lp588
S'Shatner)'
p589
as(g89
g404
tp590
(lp591
g405
as(g77
S'the'
p592
tp593
(lp594
S'screen'
p595
as(g299
S'three'
p596
tp597
(lp598
S'doors'
p599
as(S'boiler'
p600
S'room'
p601
tp602
(lp603
S'hallway'
p604
as(S'be'
p605
S'determined'
p606
tp607
(lp608
S'at'
p609
as(S'or'
p610
S'sepia.'
p611
tp612
(lp613
S'END'
p614
as(g89
S'hor-house,'
p615
tp616
(lp617
S'and'
p618
as(S'the'
p619
S'bottom'
p620
tp621
(lp622
S'left'
p623
aS'right'
p624
as(g601
g604
tp625
(lp626
S'before'
p627
as(g89
S'sandwich'
p628
tp629
(lp630
S'crust'
p631
as(g305
S'the'
p632
tp633
(lp634
S'camera'
p635
as(S'streets'
p636
S'below.'
p637
tp638
(lp639
S'END'
p640
as(S'the'
p641
S'next'
p642
tp643
(lp644
S'scene.'
p645
as(g618
S'and'
p646
tp647
(lp648
S'in'
p649
as(g240
g243
tp650
(lp651
S'door'
p652
as(S'view'
p653
S'of'
p654
tp655
(lp656
S'the'
p657
as(S'will'
p658
S'pan'
p659
tp660
(lp661
g203
aS'across'
p662
as(S'(Yelling'
p663
S'after'
p664
tp665
(lp666
S'NAME3)'
p667
as(S'toy,'
p668
g385
tp669
(lp670
g307
as(S'stream'
p671
S'of'
p672
tp673
(lp674
S'consciousness'
p675
as(S"What's"
p676
S'the'
p677
tp678
(lp679
S'matter?'
p680
as(S'to'
p681
S'reveal'
p682
tp683
(lp684
g89
as(S'how'
p685
S'he'
p686
tp687
(lp688
S'screams'
p689
as(g452
g455
tp690
(lp691
S'NAME4)'
p692
as(S'camera'
p693
S'pulls'
p694
tp695
(lp696
S'back'
p697
as(S'best'
p698
S'he'
p699
tp700
(lp701
S'can'
p702
as(S'interrupted'
p703
S'by'
p704
tp705
(lp706
S'NAME3'
p707
as(S'will'
p708
S'stay'
p709
tp710
(lp711
S'outside'
p712
as(S'stillness'
p713
S'as'
p714
tp715
(lp716
S'NAME4'
p717
as(S'NOW'
p718
S'(tense'
p719
tp720
(lp721
S'and'
p722
as(S'and'
p723
S'his'
p724
tp725
(lp726
S'hand'
p727
as(S'which'
p728
S'is'
p729
tp730
(lp731
g703
as(g329
g332
tp732
(lp733
S'the'
p734
aS'the'
p735
aS'the'
p736
aS'the'
p737
as(S'NAME1'
p738
S'approaching)'
p739
tp740
(lp741
S'END'
p742
as(S'tube'
p743
S'portruding'
p744
tp745
(lp746
S'from'
p747
as(S'second'
p748
S'will'
p749
tp750
(lp751
S'be'
p752
as(S'the'
p753
S'parking'
p754
tp755
(lp756
S'lot'
p757
as(S'results,'
p758
S'and'
p759
tp760
(lp761
S'NAME3'
p762
as(S'singing'
p763
S'coming'
p764
tp765
(lp766
S'from'
p767
as(S'up'
p768
S'at'
p769
tp770
(lp771
S'the'
p772
as(S'interrupted'
p773
S'when'
p774
tp775
(lp776
S'NAME3'
p777
as(S'about'
p778
S'his'
p779
tp780
(lp781
S'theory\xe2\x80\xa6'
p782
as(S'(Begins'
p783
S'to'
p784
tp785
(lp786
S'space'
p787
as(S'was'
p788
g89
tp789
(lp790
g328
aS'speakeasie,'
p791
aS'hotel'
p792
ag615
aS'frat.'
p793
as(S'Camera'
p794
S'begins'
p795
tp796
(lp797
S'perched'
p798
as(g615
g618
tp799
(lp800
g646
as(S'the'
p801
S'porch,'
p802
tp803
(lp804
S'who'
p805
as(S'wall'
p806
S'below'
p807
tp808
(lp809
S'the'
p810
as(S'be'
p811
S'about'
p812
tp813
(lp814
S'to'
p815
as(S'to'
p816
S'their'
p817
tp818
(lp819
S'activity.'
p820
as(S'stop'
p821
S'watch\xe2\x80\xa6'
p822
tp823
(lp824
S'END'
p825
as(S'the'
p826
S'sunshine.'
p827
tp828
(lp829
S'END'
p830
as(g628
g631
tp831
(lp832
S'down'
p833
as(S'the'
p834
S'conversation.'
p835
tp836
(lp837
S'END'
p838
as(S'making'
p839
S'suggestions.'
p840
tp841
(lp842
S'END'
p843
as(S'chair'
p844
S'in'
p845
tp846
(lp847
S'the'
p848
as(g89
S'long'
p849
tp850
(lp851
S'strange'
p852
as(S'(to'
p853
S'NAME2)'
p854
tp855
(lp856
S'END'
p857
aS'END'
p858
as(g403
g442
tp859
(lp860
S'END'
p861
as(S'stands'
p862
S'up'
p863
tp864
(lp865
S'and'
p866
as(g167
g662
tp867
(lp868
S'all'
p869
as(S'clap'
p870
g728
tp871
(lp872
g729
as(S'(Shakespearean'
p873
S'sorrow)'
p874
tp875
(lp876
S'END'
p877
as(S'his'
p878
S'first'
p879
tp880
(lp881
S'story:'
p882
as(S'room,'
p883
S'NAME3'
p884
tp885
(lp886
S'will'
p887
as(S'the'
p888
S'fact'
p889
tp890
(lp891
S'that'
p892
as(g592
g595
tp893
(lp894
S'at'
p895
as(g104
S'drops'
p896
tp897
(lp898
g89
as(S'NOW'
p899
g783
tp900
(lp901
g784
as(g116
g119
tp902
(lp903
g63
ag159
ag517
aS'pans'
p904
aS'will'
p905
aS'will'
p906
aS'will'
p907
aS'focus'
p908
aS'will'
p909
aS'will'
p910
aS'will'
p911
aS'follows'
p912
as(S'on'
p913
S'speaker'
p914
tp915
(lp916
S'phone'
p917
as(g604
g627
tp918
(lp919
S'panning'
p920
as(S'already'
p921
S'begun'
p922
tp923
(lp924
S'walking'
p925
as(g140
g143
tp926
(lp927
S"NAME1's"
p928
aS'the'
p929
aS'his'
p930
as(S'the'
p931
S'sleeve'
p932
tp933
(lp934
S'and'
p935
as(g498
S'from'
p936
tp937
(lp938
S'the'
p939
as(S'goes'
p940
S'back'
p941
tp942
(lp943
S'to'
p944
as(S'the'
p945
g844
tp946
(lp947
g845
as(S'passes'
p948
S'it,'
p949
tp950
(lp951
S'until'
p952
as(g675
S'bit'
p953
tp954
(lp955
S'about'
p956
as(S'unhook'
p957
S'the'
p958
tp959
(lp960
S'machine.'
p961
as(S'NOW'
p962
S'back'
p963
tp964
(lp965
S'in'
p966
as(g284
g411
tp967
(lp968
S'way'
p969
as(S'happy'
p970
S'birthday.'
p971
tp972
(lp973
S'END'
p974
as(g89
g653
tp975
(lp976
g654
as(S'NAME3'
p977
S'is'
p978
tp979
(lp980
S'on'
p981
as(S'NOW'
p982
g873
tp983
(lp984
g874
as(g642
g645
tp985
(lp986
S'END'
p987
as(S'know'
p988
S'why?"'
p989
tp990
(lp991
S'END'
p992
as(g659
g203
tp993
(lp994
g204
as(S'to'
p995
g343
tp996
(lp997
g344
as(S'NOW'
p998
S'and'
p999
tp1000
(lp1001
g26
as(S'drum'
p1002
S'set.'
p1003
tp1004
(lp1005
S'END'
p1006
as(S'(NAME1'
p1007
S'grabs'
p1008
tp1009
(lp1010
S'NAME2'
p1011
as(g432
g435
tp1012
(lp1013
S'END'
p1014
as(S'and'
p1015
S'NAME2'
p1016
tp1017
(lp1018
S'will'
p1019
as(S'epitaths'
p1020
S'to'
p1021
tp1022
(lp1023
S'the'
p1024
as(g126
g512
tp1025
(lp1026
S'NAME3'
p1027
as(g357
S'will'
p1028
tp1029
(lp1030
S'approach'
p1031
as(S'for'
p1032
g89
tp1033
(lp1034
S'response,'
p1035
as(g368
g371
tp1036
(lp1037
S'camera'
p1038
as(S'NAME3\xe2\x80\x99s'
p1039
S'closet.'
p1040
tp1041
(lp1042
S'END'
p1043
as(S'of'
p1044
S'nowhere,'
p1045
tp1046
(lp1047
g234
as(S'IS'
p1048
S'SAD.'
p1049
tp1050
(lp1051
S'END'
p1052
as(S'lazy'
p1053
S'boy.'
p1054
tp1055
(lp1056
S'END'
p1057
aS'END'
p1058
as(g291
g294
tp1059
(lp1060
g811
as(g72
S'stop'
p1061
tp1062
(lp1063
S'watch,'
p1064
as(S'perspective,'
p1065
S'making'
p1066
tp1067
(lp1068
S'the'
p1069
as(g134
S'have'
p1070
tp1071
(lp1072
S'been'
p1073
as(S'NAME3'
p1074
S'SAD.'
p1075
tp1076
(lp1077
S'END'
p1078
as(S'off,'
p1079
S'as'
p1080
tp1081
(lp1082
S'the'
p1083
as(S'shot,'
p1084
g95
tp1085
(lp1086
g96
as(S'low'
p1087
S'and'
p1088
tp1089
(lp1090
S'follow'
p1091
as(S'NAME3'
p1092
S'sits'
p1093
tp1094
(lp1095
g88
as(S'even'
p1096
S'close'
p1097
tp1098
(lp1099
S'the'
p1100
as(g491
g139
tp1101
(lp1102
g140
as(S'twirling'
p1103
S'paint'
p1104
tp1105
(lp1106
S'smear'
p1107
as(g279
S'looking'
p1108
tp1109
(lp1110
g768
ag271
aS'up'
p1111
as(S'quick'
p1112
S'scroll,'
p1113
tp1114
(lp1115
S'it'
p1116
as(S'him'
p1117
g89
tp1118
(lp1119
g970
as(g672
g675
tp1120
(lp1121
g953
as(g189
g192
tp1122
(lp1123
g888
as(S'door'
p1124
S'closing)'
p1125
tp1126
(lp1127
S'END'
p1128
as(S'NAME2'
p1129
S'with'
p1130
tp1131
(lp1132
g522
as(S'on'
p1133
S'fence'
p1134
tp1135
(lp1136
S'looking'
p1137
as(S'excited,'
p1138
S'watching'
p1139
tp1140
(lp1141
g89
as(S'brothers'
p1142
S'and'
p1143
tp1144
(lp1145
g275
as(S'Is'
p1146
S'this'
p1147
tp1148
(lp1149
S'my'
p1150
as(S'with'
p1151
S'silence.'
p1152
tp1153
(lp1154
S'END'
p1155
as(g904
S'around'
p1156
tp1157
(lp1158
S'behind'
p1159
aS'to'
p1160
as(g573
g576
tp1161
(lp1162
S'up'
p1163
as(S'their'
p1164
S'first'
p1165
tp1166
(lp1167
S'skit.'
p1168
as(S'drum'
p1169
S'and'
p1170
tp1171
(lp1172
S'bass'
p1173
as(S'NOW'
p1174
S'(sudden'
p1175
tp1176
(lp1177
S'realization,'
p1178
as(S'NAME3'
p1179
g839
tp1180
(lp1181
g840
as(S'NOW'
p1182
S'"NAME3?'
p1183
tp1184
(lp1185
S'END'
p1186
as(g717
S'lounges'
p1187
tp1188
(lp1189
S'and'
p1190
as(S'other'
p1191
S'line,'
p1192
tp1193
(lp1194
g178
as(S'twirling'
p1195
S'above'
p1196
tp1197
(lp1198
S'him,'
p1199
as(S'the'
p1200
S'window,'
p1201
tp1202
(lp1203
S'emitting'
p1204
as(S'NAME2,'
p1205
S'pointing'
p1206
tp1207
(lp1208
S'upwards'
p1209
as(S'NOW'
p1210
S'NAME4'
p1211
tp1212
(lp1213
g213
aS'trails'
p1214
ag390
as(g623
S'corner'
p1215
tp1216
(lp1217
S'playing'
p1218
as(S'will'
p1219
S'twirl'
p1220
tp1221
(lp1222
S'into'
p1223
as(S'the'
p1224
S'apartament,'
p1225
tp1226
(lp1227
S'now'
p1228
as(g230
g233
tp1229
(lp1230
S'the'
p1231
as(S'Title'
p1232
S'comes'
p1233
tp1234
(lp1235
g105
as(S'NOW'
p1236
S'Most'
p1237
tp1238
(lp1239
S'likely'
p1240
as(g460
S'at'
p1241
tp1242
(lp1243
S'and'
p1244
as(S'This'
p1245
g490
tp1246
(lp1247
S'is'
p1248
as(g929
S'toy.'
p1249
tp1250
(lp1251
S'END'
p1252
as(S'his'
p1253
S'flannel'
p1254
tp1255
(lp1256
S'and'
p1257
as(S'the'
p1258
g399
tp1259
(lp1260
g400
as(g1045
g234
tp1261
(lp1262
g235
as(S'because'
p1263
S'he'
p1264
tp1265
(lp1266
S'can\xe2\x80\x99t'
p1267
aS'can\xe2\x80\x99t'
p1268
as(S'NOW'
p1269
S'But'
p1270
tp1271
(lp1272
S'when'
p1273
as(S'some'
p1274
S'shit.'
p1275
tp1276
(lp1277
S'END'
p1278
as(g20
S'it'
p1279
tp1280
(lp1281
S'and'
p1282
as(g342
S'tell'
p1283
tp1284
(lp1285
g878
as(S'has'
p1286
g921
tp1287
(lp1288
g922
as(S'seconds'
p1289
S'of'
p1290
tp1291
(lp1292
S'silence'
p1293
aS'silence'
p1294
as(g390
g393
tp1295
(lp1296
S'python,'
p1297
as(S'moves'
p1298
S'to'
p1299
tp1300
(lp1301
g89
as(S'NOW'
p1302
S'They\xe2\x80\x99ll'
p1303
tp1304
(lp1305
S'walk'
p1306
as(g93
S'on'
p1307
tp1308
(lp1309
S'the'
p1310
as(g89
S'bass'
p1311
tp1312
(lp1313
S'player'
p1314
as(S'Their'
p1315
S'voices'
p1316
tp1317
(lp1318
S'become'
p1319
as(g892
S'NAME1'
p1320
tp1321
(lp1322
S'doesn\xe2\x80\x99t'
p1323
as(S'NAME1'
p1324
S'sleeping'
p1325
tp1326
(lp1327
S'in'
p1328
as(S'outside,'
p1329
S'and'
p1330
tp1331
(lp1332
S'the'
p1333
as(S'him,'
p1334
S'and'
p1335
tp1336
(lp1337
S'begins'
p1338
as(S'NOW'
p1339
S'the'
p1340
tp1341
(lp1342
g748
aS'camera'
p1343
as(S'finally'
p1344
S'grab'
p1345
tp1346
(lp1347
S'the'
p1348
as(S'and'
p1349
S'white'
p1350
tp1351
(lp1352
g610
as(S'and'
p1353
g940
tp1354
(lp1355
g941
as(S'(NAME1\xe2\x80\x99s'
p1356
S'face'
p1357
tp1358
(lp1359
g499
as(g1156
g1159
tp1360
(lp1361
S'him'
p1362
as(S'The'
p1363
g136
tp1364
(lp1365
S'will'
p1366
as(S'angle'
p1367
S'will'
p1368
tp1369
(lp1370
S'be'
p1371
as(S'chair,'
p1372
S'slowly'
p1373
tp1374
(lp1375
S'spinning'
p1376
as(g1231
S'room.'
p1377
tp1378
(lp1379
S'END'
p1380
as(g235
g238
tp1381
(lp1382
S'NAME3,'
p1383
as(S'NOW'
p1384
S'(interested)'
p1385
tp1386
(lp1387
S'END'
p1388
as(g366
g589
tp1389
(lp1390
S'END'
p1391
as(S'His'
p1392
S'day'
p1393
tp1394
(lp1395
S'dream'
p1396
as(g158
S'of'
p1397
tp1398
(lp1399
S'slow'
p1400
as(S'end'
p1401
S'of'
p1402
tp1403
(lp1404
S'the'
p1405
as(g1113
g1116
tp1406
(lp1407
g658
as(S'black'
p1408
g1349
tp1409
(lp1410
g1350
as(S'talking'
p1411
S'to'
p1412
tp1413
(lp1414
S'NAME2.'
p1415
as(g165
S'through'
p1416
tp1417
(lp1418
S'the'
p1419
as(g35
S'anything.'
p1420
tp1421
(lp1422
S'END'
p1423
as(S'up'
p1424
g913
tp1425
(lp1426
g914
as(g1393
g1396
tp1427
(lp1428
S'voice'
p1429
as(S'approach'
p1430
S'door'
p1431
tp1432
(lp1433
g312
as(S'zooming'
p1434
S'in'
p1435
tp1436
(lp1437
S'and'
p1438
as(S"can't"
p1439
S'hear'
p1440
tp1441
(lp1442
S'them.'
p1443
ag1420
ag12
as(g54
g57
tp1444
(lp1445
S'END'
p1446
as(S'He'
p1447
S'will'
p1448
tp1449
(lp1450
g280
as(g1314
S'on'
p1451
tp1452
(lp1453
g801
as(S'primal'
p1454
S'screaming'
p1455
tp1456
(lp1457
S'through'
p1458
as(g1209
S'to'
p1459
tp1460
(lp1461
g534
as(S'his'
p1462
S'options.'
p1463
tp1464
(lp1465
S'END'
p1466
as(S'end,'
p1467
S'saying'
p1468
tp1469
(lp1470
S'"Hello?'
p1471
as(g398
S'yet.'
p1472
tp1473
(lp1474
S'END'
p1475
as(g1196
g1199
tp1476
(lp1477
S'as'
p1478
as(S'focus'
p1479
S'as'
p1480
tp1481
(lp1482
S'quick'
p1483
as(S'him'
p1484
S'up'
p1485
tp1486
(lp1487
S'the'
p1488
ag913
as(g1328
S'the'
p1489
tp1490
(lp1491
g1053
ag827
aS'opposite'
p1492
aS'bottom'
p1493
aS'lazy'
p1494
aS'immidiate'
p1495
aS'1800s'
p1496
ag466
aS'1960s'
p1497
aS'1970s'
p1498
aS'1990s'
p1499
ag883
aS'background.'
p1500
aS'background)'
p1501
as(g1130
g522
tp1502
(lp1503
g523
as(S'set'
p1504
S'up)'
p1505
tp1506
(lp1507
S'END'
p1508
as(g197
S'but'
p1509
tp1510
(lp1511
S'is'
p1512
as(g52
S'facing'
p1513
tp1514
(lp1515
S'the'
p1516
as(S'again'
p1517
S'before'
p1518
tp1519
(lp1520
S'the'
p1521
as(S'slow'
p1522
S'lounging...'
p1523
tp1524
(lp1525
S'END'
p1526
as(S'front'
p1527
S'of'
p1528
tp1529
(lp1530
S'him.'
p1531
as(S'take'
p1532
S'NAME2'
p1533
tp1534
(lp1535
S'down'
p1536
as(S'part'
p1537
g436
tp1538
(lp1539
g437
as(g1175
g1178
tp1540
(lp1541
g559
as(S'and'
p1542
S'the'
p1543
tp1544
(lp1545
S'left'
p1546
ag693
aS'dad'
p1547
as(S'NAME1'
p1548
S'is'
p1549
tp1550
(lp1551
S'gone.'
p1552
as(g767
S'door'
p1553
tp1554
(lp1555
S'3.'
p1556
as(g1111
S'fascinated.'
p1557
tp1558
(lp1559
S'END'
p1560
as(S'wanna'
p1561
g988
tp1562
(lp1563
g989
as(g798
g1133
tp1564
(lp1565
g1134
as(S'the'
p1566
S'road.'
p1567
tp1568
(lp1569
S'END'
p1570
as(S'enters'
p1571
S'shot,'
p1572
tp1573
(lp1574
S'walking'
p1575
as(g1147
g1150
tp1576
(lp1577
S'stalker?'
p1578
as(S'of'
p1579
S'soft'
p1580
tp1581
(lp1582
g763
as(g1107
S'fade,'
p1583
tp1584
(lp1585
S'and'
p1586
as(S'where'
p1587
S'it'
p1588
tp1589
(lp1590
g338
as(S'the'
p1591
g444
tp1592
(lp1593
S'END'
p1594
as(S'NOW'
p1595
g663
tp1596
(lp1597
g664
as(S'NOW'
p1598
S'(He'
p1599
tp1600
(lp1601
g251
as(S'hear'
p1602
S'NAME3'
p1603
tp1604
(lp1605
g1454
as(g774
g777
tp1606
(lp1607
S'gets'
p1608
as(S'for'
p1609
g394
tp1610
(lp1611
g395
as(g1498
S'it'
p1612
tp1613
(lp1614
S'was'
p1615
as(S'at'
p1616
S'the'
p1617
tp1618
(lp1619
g1002
aS'computer'
p1620
ag1061
aS'door'
p1621
aS'speakerphone'
p1622
as(S'wander'
p1623
g1079
tp1624
(lp1625
g1080
as(S'and'
p1626
S'sleeping'
p1627
tp1628
(lp1629
S'in'
p1630
as(g852
S'tale'
p1631
tp1632
(lp1633
S'about'
p1634
as(g879
g882
tp1635
(lp1636
S'END'
p1637
as(S'NOW'
p1638
g676
tp1639
(lp1640
g677
as(g1165
g1168
tp1641
(lp1642
S'END'
p1643
as(S'as'
p1644
S'the'
p1645
tp1646
(lp1647
g1169
aS'camera'
p1648
aS'back'
p1649
as(g120
g1
tp1650
(lp1651
g2
as(S'wish'
p1652
g1117
tp1653
(lp1654
g89
as(S'NOW'
p1655
S'(suddenly'
p1656
tp1657
(lp1658
S'appearing'
p1659
as(S'over'
p1660
S'begins.'
p1661
tp1662
(lp1663
S'END'
p1664
as(S'camera'
p1665
S'that'
p1666
tp1667
(lp1668
S'he'
p1669
as(g145
g148
tp1670
(lp1671
S'the'
p1672
as(g484
S'settle'
p1673
tp1674
(lp1675
S'onto'
p1676
as(g17
g20
tp1677
(lp1678
g1279
as(S'will'
p1679
S'dangle'
p1680
tp1681
(lp1682
S'from'
p1683
as(S'the'
p1684
S'background'
p1685
tp1686
(lp1687
S'fuzzed'
p1688
aS'is'
p1689
as(g1139
g89
tp1690
(lp1691
S'Monty'
p1692
as(g344
g347
tp1693
(lp1694
S'the'
p1695
as(S'other'
p1696
g1467
tp1697
(lp1698
g1468
as(g174
S'face.'
p1699
tp1700
(lp1701
S'END'
p1702
as(g89
g328
tp1703
(lp1704
g329
as(g568
g571
tp1705
(lp1706
S'to'
p1707
as(S'not'
p1708
S'quite'
p1709
tp1710
(lp1711
S'looking'
p1712
as(g89
S'broken'
p1713
tp1714
(lp1715
S'arm'
p1716
as(S'where'
p1717
S'we'
p1718
tp1719
(lp1720
S'see'
p1721
as(S'handle'
p1722
S'fuzzy.'
p1723
tp1724
(lp1725
S'END'
p1726
as(g709
g712
tp1727
(lp1728
g1411
as(S'how'
p1729
S'in'
p1730
tp1731
(lp1732
S'the'
p1733
as(S'hallway'
p1734
S'away'
p1735
tp1736
(lp1737
S'from'
p1738
as(g1362
g348
tp1739
(lp1740
g349
as(g479
S'enters,'
p1741
tp1742
(lp1743
S'the'
p1744
as(g1008
g1011
tp1745
(lp1746
S'by'
p1747
as(S'NOW'
p1748
S'(taking'
p1749
tp1750
(lp1751
S'off'
p1752
as(S'up'
p1753
g544
tp1754
(lp1755
g545
aS'they'
p1756
aS'gets'
p1757
as(g1721
S'NAME1'
p1758
tp1759
(lp1760
S'and'
p1761
as(g749
g752
tp1762
(lp1763
S'someone'
p1764
aS'on'
p1765
aS'such'
p1766
aS'just'
p1767
aS'his'
p1768
ag1108
ag270
aS'on'
p1769
aS'looking'
p1770
as(S'an'
p1771
S'ironic'
p1772
tp1773
(lp1774
g870
as(S'the'
p1775
S'camera,'
p1776
tp1777
(lp1778
S'switching'
p1779
as(S'NOW'
p1780
S'SEE'
p1781
tp1782
(lp1783
g1074
as(g271
g274
tp1784
(lp1785
S'and'
p1786
as(g1459
g534
tp1787
(lp1788
g535
aS'his'
p1789
as(g1429
g1660
tp1790
(lp1791
g1661
aS'about'
p1792
as(g805
S'begins'
p1793
tp1794
(lp1795
S'as'
p1796
as(S'inside'
p1797
g1616
tp1798
(lp1799
g1617
as(g1716
g1372
tp1800
(lp1801
g1373
as(g1024
g636
tp1802
(lp1803
g637
as(g1396
g1429
tp1804
(lp1805
g1660
as(g89
S'restricted'
p1806
tp1807
(lp1808
S'number.'
p1809
as(g521
S'as'
p1810
tp1811
(lp1812
S'he'
p1813
as(S'watch'
p1814
g144
tp1815
(lp1816
g145
as(S'telling'
p1817
g89
tp1818
(lp1819
g849
as(S'the'
p1820
g883
tp1821
(lp1822
g884
as(g89
g361
tp1823
(lp1824
S'grin)'
p1825
as(g1279
g1282
tp1826
(lp1827
S'peek'
p1828
as(S'off'
p1829
g554
tp1830
(lp1831
g555
as(S'he'
p1832
S'was'
p1833
tp1834
(lp1835
S'gonna'
p1836
as(g866
g1756
tp1837
(lp1838
g1623
aS'will'
p1839
as(S'or'
p1840
g1274
tp1841
(lp1842
g1275
as(S'NOW'
p1843
S'10'
p1844
tp1845
(lp1846
g1289
as(S'Are'
p1847
S'you'
p1848
tp1849
(lp1850
S'sad?'
p1851
as(g1293
S'and'
p1852
tp1853
(lp1854
g713
ag1522
as(S'NOW'
p1855
S'(distracted)'
p1856
tp1857
(lp1858
S'END'
p1859
as(S'center'
p1860
S'door.'
p1861
tp1862
(lp1863
S'END'
p1864
as(S'stop'
p1865
S'and'
p1866
tp1867
(lp1868
S'hang'
p1869
as(S'one'
p1870
S'light'
p1871
tp1872
(lp1873
S'switch'
p1874
as(S'They'
p1875
S'will'
p1876
tp1877
(lp1878
S'share'
p1879
as(g159
g154
tp1880
(lp1881
g155
as(S'head'
p1882
S'strangely'
p1883
tp1884
(lp1885
S'lit'
p1886
as(S'pans'
p1887
S'down'
p1888
tp1889
(lp1890
S'and'
p1891
as(g1513
g1516
tp1892
(lp1893
S'West'
p1894
as(S'In'
p1895
S'the'
p1896
tp1897
(lp1898
S'background'
p1899
as(S'porch'
p1900
S'to'
p1901
tp1902
(lp1903
S'the'
p1904
as(g1871
g1874
tp1905
(lp1906
S'at'
p1907
as(g1348
S'machine'
p1908
tp1909
(lp1910
S'and'
p1911
as(g296
g299
tp1912
(lp1913
g596
as(S'the'
p1914
S'house.'
p1915
tp1916
(lp1917
S'END'
p1918
as(S'or'
p1919
S'something.'
p1920
tp1921
(lp1922
S'END'
p1923
as(S'his'
p1924
S'soliloquy.'
p1925
tp1926
(lp1927
S'END'
p1928
as(S'scream'
p1929
g21
tp1930
(lp1931
g22
as(g1273
S'they'
p1932
tp1933
(lp1934
S'hit'
p1935
as(g949
g952
tp1936
(lp1937
g208
as(S'and'
p1938
S'Dad'
p1939
tp1940
(lp1941
S'call'
p1942
as(S'down'
p1943
S'road.'
p1944
tp1945
(lp1946
S'END'
p1947
as(g155
g158
tp1948
(lp1949
g1397
as(S'will'
p1950
S'change,'
p1951
tp1952
(lp1953
S'bringing'
p1954
as(g1939
g1942
tp1955
(lp1956
S'him'
p1957
as(g214
g217
tp1958
(lp1959
S'distracted,'
p1960
as(S'will'
p1961
S'begin'
p1962
tp1963
(lp1964
g89
aS'moving'
p1965
as(g455
g692
tp1966
(lp1967
S'END'
p1968
as(g784
g787
tp1969
(lp1970
S'out.'
p1971
as(g1547
S'will'
p1972
tp1973
(lp1974
g1344
as(g930
S'toy.)'
p1975
tp1976
(lp1977
S'END'
p1978
as(S'down,'
p1979
S'we'
p1980
tp1981
(lp1982
S'see'
p1983
as(g443
g1587
tp1984
(lp1985
g1588
as(S'the'
p1986
g1479
tp1987
(lp1988
g1480
as(g1960
S'and'
p1989
tp1990
(lp1991
S'begin'
p1992
as(S'(NAME3'
p1993
S'walks'
p1994
tp1995
(lp1996
S'over'
p1997
as(S'if'
p1998
g1832
tp1999
(lp2000
g1833
as(g1340
g748
tp2001
(lp2002
g749
as(S'him'
p2003
S'and'
p2004
tp2005
(lp2006
S'he'
p2007
as(g1282
g1828
tp2008
(lp2009
S'inside,'
p2010
as(g810
S'window.'
p2011
tp2012
(lp2013
S'END'
p2014
aS'END'
p2015
aS'END'
p2016
as(S'NOW'
p2017
S'NAME2'
p2018
tp2019
(lp2020
S'will'
p2021
aS'will'
p2022
aS'will'
p2023
as(g1735
g1738
tp2024
(lp2025
g1775
as(g304
S'to'
p2026
tp2027
(lp2028
g223
aS'NAME3'
p2029
as(g1891
S'pulls'
p2030
tp2031
(lp2032
S'back'
p2033
as(g704
g707
tp2034
(lp2035
S'and'
p2036
as(g1631
g1634
tp2037
(lp2038
g1729
as(S'the'
p2039
g668
tp2040
(lp2041
g385
as(g1883
g1886
tp2042
(lp2043
g170
as(S'find'
p2044
S'it.'
p2045
tp2046
(lp2047
S'END'
p2048
as(g96
g99
tp2049
(lp2050
g619
as(S'NAME1'
p2051
S'gets'
p2052
tp2053
(lp2054
g1753
as(g486
g489
tp2055
(lp2056
S'become'
p2057
as(S'he'
p2058
g1439
tp2059
(lp2060
g1440
as(g812
g815
tp2061
(lp2062
S'grip'
p2063
as(S'handle'
p2064
g723
tp2065
(lp2066
g724
as(S'doesn\xe2\x80\x99t'
p2067
g1096
tp2068
(lp2069
g1097
as(S'The'
p2070
g120
tp2071
(lp2072
g1
as(g89
g94
tp2073
(lp2074
S'primal'
p2075
as(S'to'
p2076
g1652
tp2077
(lp2078
g1117
as(g1088
g1091
tp2079
(lp2080
g1205
as(g1316
g1319
tp2081
(lp2082
S'heard.'
p2083
as(S'He'
p2084
S'wails'
p2085
tp2086
(lp2087
S'because'
p2088
as(g914
g917
tp2089
(lp2090
g2076
as(g817
g820
tp2091
(lp2092
S'END'
p2093
as(g555
g558
tp2094
(lp2095
S'as'
p2096
as(S'past'
p2097
g285
tp2098
(lp2099
g286
as(S'bothered,'
p2100
g1353
tp2101
(lp2102
g940
as(S'(distract'
p2103
g89
tp2104
(lp2105
S'cat?)'
p2106
as(g67
g1566
tp2107
(lp2108
g1567
ag600
aS'hallway.'
p2109
ag1734
as(S'the'
p2110
S'words)'
p2111
tp2112
(lp2113
S'END'
p2114
as(g1673
g1676
tp2115
(lp2116
S'the'
p2117
as(S'not'
p2118
g1138
tp2119
(lp2120
g1139
as(g1237
g1240
tp2121
(lp2122
S'random.'
p2123
as(S'get'
p2124
g1789
tp2125
(lp2126
g1882
as(S'with'
p2127
S'NAME1'
p2128
tp2129
(lp2130
S'on'
p2131
as(S'right'
p2132
S'and'
p2133
tp2134
(lp2135
S'surveys'
p2136
as(S'NOW'
p2137
S'Can'
p2138
tp2139
(lp2140
S'you'
p2141
as(S'NAME4'
p2142
S'continues)'
p2143
tp2144
(lp2145
S'END'
p2146
as(S'not'
p2147
g2100
tp2148
(lp2149
g1353
as(S'sing'
p2150
S'to'
p2151
tp2152
(lp2153
S'him,'
p2154
as(S'on'
p2155
g1870
tp2156
(lp2157
g1871
as(g1116
g658
tp2158
(lp2159
g659
as(g792
S'and'
p2160
tp2161
(lp2162
S'in'
p2163
as(S'will'
p2164
g1532
tp2165
(lp2166
g1533
ag281
as(g89
g743
tp2167
(lp2168
g744
as(S'(his'
p2169
g504
tp2170
(lp2171
g505
as(S'Camera'
p2172
g1887
tp2173
(lp2174
g1888
aS'to'
p2175
as(S'(NAME1'
p2176
S'enters)'
p2177
tp2178
(lp2179
S'END'
p2180
as(g457
g460
tp2181
(lp2182
g1241
as(g308
g311
tp2183
(lp2184
S'END'
p2185
as(g266
g269
tp2186
(lp2187
g513
as(g1493
g624
tp2188
(lp2189
S'corner.'
p2190
as(S'the'
p2191
g1500
tp2192
(lp2193
S'END'
p2194
as(g922
g925
tp2195
(lp2196
S'away)'
p2197
as(g1549
g1552
tp2198
(lp2199
S'END'
p2200
as(g508
g1151
tp2201
(lp2202
g1152
as(g912
g2003
tp2203
(lp2204
g2004
as(g194
g197
tp2205
(lp2206
g1509
as(g952
g208
tp2207
(lp2208
g209
as(S'tells'
p2209
g89
tp2210
(lp2211
S'punchline,'
p2212
as(S'than'
p2213
S'untwirl'
p2214
tp2215
(lp2216
S'into'
p2217
as(g2033
S'to'
p2218
tp2219
(lp2220
S'show'
p2221
aS'his'
p2222
ag343
ag817
as(g89
g671
tp2223
(lp2224
g672
as(S'half'
p2225
S'entertained,'
p2226
tp2227
(lp2228
g1708
as(g978
g981
tp2229
(lp2230
S'the'
p2231
as(S'NOW'
p2232
S'THIS'
p2233
tp2234
(lp2235
S'SCENE'
p2236
as(S'the'
p2237
g1649
tp2238
(lp2239
S'door'
p2240
aS'door.'
p2241
as(S'NOW'
p2242
S"It's"
p2243
tp2244
(lp2245
S'choppy'
p2246
as(g182
g957
tp2247
(lp2248
g958
as(g89
g791
tp2249
(lp2250
S'and'
p2251
as(S'(just'
p2252
g362
tp2253
(lp2254
g363
as(S"there's"
p2255
S'the'
p2256
tp2257
(lp2258
S'sound'
p2259
as(S'will'
p2260
S'than'
p2261
tp2262
(lp2263
S'accept'
p2264
as(g384
S'inside.'
p2265
tp2266
(lp2267
S'END'
p2268
as(g446
g449
tp2269
(lp2270
g1329
as(S'or'
p2271
S'zooming.'
p2272
tp2273
(lp2274
S'END'
p2275
as(S'congratulate'
p2276
S'him'
p2277
tp2278
(lp2279
S'on'
p2280
as(S'door'
p2281
S'number'
p2282
tp2283
(lp2284
S'three)(suddenly'
p2285
as(g1159
g1362
tp2286
(lp2287
g348
as(g558
g2096
tp2288
(lp2289
g2237
as(g89
S'position'
p2290
tp2291
(lp2292
g1717
as(g87
g1434
tp2293
(lp2294
g1435
as(S'the'
p2295
g1492
tp2296
(lp2297
S'direction.'
p2298
as(g759
g762
tp2299
(lp2300
S'will'
p2301
aS'and'
p2302
as(g143
g928
tp2303
(lp2304
S'toy.'
p2305
as(g545
g548
tp2306
(lp2307
g1644
as(S'barrage'
p2308
g1129
tp2309
(lp2310
g1130
as(S'NOW'
p2311
S'hey'
p2312
tp2313
(lp2314
S'will'
p2315
as(S'NOW'
p2316
S'(muffled)'
p2317
tp2318
(lp2319
S'END'
p2320
as(S'(Sound'
p2321
S'of'
p2322
tp2323
(lp2324
g1124
as(g1104
g1107
tp2325
(lp2326
g1583
as(g1741
g1744
tp2327
(lp2328
S'camera'
p2329
as(S'around'
p2330
g1160
tp2331
(lp2332
g1814
ag2150
as(g89
g93
tp2333
(lp2334
g1307
as(g1233
g105
tp2335
(lp2336
g106
as(g413
g416
tp2337
(lp2338
g471
as(g238
g1383
tp2339
(lp2340
S'playing'
p2341
as(S'will'
p2342
g2276
tp2343
(lp2344
g2277
as(S'close'
p2345
S'it'
p2346
tp2347
(lp2348
g1517
as(g89
S'time,'
p2349
tp2350
(lp2351
g1817
as(g1672
g1621
tp2352
(lp2353
S'to'
p2354
aS'behind'
p2355
as(g581
g1065
tp2356
(lp2357
g1066
as(g1478
S'he'
p2358
tp2359
(lp2360
S'twirls'
p2361
ag413
ag301
aS'turns'
p2362
ag948
as(g59
g62
tp2363
(lp2364
S'with'
p2365
as(g274
g1786
tp2366
(lp2367
S'fascinated.'
p2368
as(S"don't"
p2369
g265
tp2370
(lp2371
g266
as(S'his'
p2372
g456
tp2373
(lp2374
g457
as(g1297
g1179
tp2375
(lp2376
g839
as(S'be'
p2377
g1768
tp2378
(lp2379
S'parents.'
p2380
as(S'NAME4'
p2381
g228
tp2382
(lp2383
S'NAME1'
p2384
as(S'drop'
p2385
S'back'
p2386
tp2387
(lp2388
S'quickly'
p2389
as(S'(obviously'
p2390
S'annoyed)'
p2391
tp2392
(lp2393
S'END'
p2394
as(g1397
g1400
tp2395
(lp2396
S'panning'
p2397
as(g624
g2190
tp2398
(lp2399
S'END'
p2400
as(g2106
S'and'
p2401
tp2402
(lp2403
S'he'
p2404
as(g1848
g1851
tp2405
(lp2406
S'END'
p2407
as(S'opens'
p2408
S'with'
p2409
tp2410
(lp2411
S'NAME2'
p2412
as(g2212
g2103
tp2413
(lp2414
g89
as(g1455
g1458
tp2415
(lp2416
S'one'
p2417
as(g1680
g1683
tp2418
(lp2419
g1200
as(g1756
g1623
tp2420
(lp2421
g1079
as(g543
g324
tp2422
(lp2423
g325
as(S'the'
p2424
g1547
tp2425
(lp2426
g1972
as(g224
g227
tp2427
(lp2428
S'the'
p2429
as(g89
g821
tp2430
(lp2431
g822
aS'watch)'
p2432
as(g566
S'the'
p2433
tp2434
(lp2435
S'water.'
p2436
ag932
as(S'the'
p2437
S'handle,'
p2438
tp2439
(lp2440
S'(camera'
p2441
as(g74
g77
tp2442
(lp2443
g592
as(g89
g1035
tp2444
(lp2445
g2142
as(g2151
g2154
tp2446
(lp2447
S'but'
p2448
as(g46
g218
tp2449
(lp2450
g219
as(g252
g255
tp2451
(lp2452
S'and'
p2453
as(g2138
g2141
tp2454
(lp2455
S'hear'
p2456
as(g1204
S'foul'
p2457
tp2458
(lp2459
g1020
as(g1499
S'it'
p2460
tp2461
(lp2462
S'was'
p2463
as(S'return'
p2464
S'outside'
p2465
tp2466
(lp2467
S'to'
p2468
as(g1240
g2123
tp2469
(lp2470
S'END'
p2471
as(S'the'
p2472
S'toy'
p2473
tp2474
(lp2475
g1542
as(S'the'
p2476
S'left'
p2477
tp2478
(lp2479
g681
aS'shoulder/head'
p2480
as(g89
g494
tp2481
(lp2482
g495
as(g1264
g1267
tp2483
(lp2484
S'talk'
p2485
aS'find'
p2486
as(g177
S'time.'
p2487
tp2488
(lp2489
S'END'
p2490
as(g490
g1248
tp2491
(lp2492
S'in'
p2493
as(S'Camera'
p2494
g1298
tp2495
(lp2496
g1299
as(S'right'
p2497
S'down'
p2498
tp2499
(lp2500
S'the'
p2501
as(g1951
g1954
tp2502
(lp2503
g577
as(g1781
g1074
tp2504
(lp2505
g1075
as(g963
g966
tp2506
(lp2507
g1820
as(g2240
S'closes,'
p2508
tp2509
(lp2510
S'and'
p2511
as(S'wrings'
p2512
S'it'
p2513
tp2514
(lp2515
S'out'
p2516
as(g89
S'voice'
p2517
tp2518
(lp2519
S'over'
p2520
as(S"I'm"
p2521
S'sad.'
p2522
tp2523
(lp2524
S'END'
p2525
as(g2233
g2236
tp2526
(lp2527
S'WILL'
p2528
as(S'that'
p2529
S'the'
p2530
tp2531
(lp2532
g2064
as(g89
g1103
tp2533
(lp2534
g1104
as(g89
g793
tp2535
(lp2536
S'END'
p2537
as(g184
g187
tp2538
(lp2539
S'END'
p2540
as(S'The'
p2541
g130
tp2542
(lp2543
S'will'
p2544
as(S'first,'
p2545
S'but'
p2546
tp2547
(lp2548
S'will'
p2549
as(g1622
S'entranced.'
p2550
tp2551
(lp2552
S'END'
p2553
as(S'livingroom'
p2554
S'in'
p2555
tp2556
(lp2557
g2191
as(g1666
g1669
tp2558
(lp2559
S'has'
p2560
as(S'Python'
p2561
S'sketch,'
p2562
tp2563
(lp2564
S'holding'
p2565
as(g2365
g89
tp2566
(lp2567
g494
ag821
as(g2052
g1753
tp2568
(lp2569
g544
as(S'wander'
p2570
g2097
tp2571
(lp2572
g285
as(g2520
g1792
tp2573
(lp2574
S'how'
p2575
as(g1097
g1100
tp2576
(lp2577
S'door.'
p2578
as(g2222
S'project.'
p2579
tp2580
(lp2581
S'END'
p2582
as(g47
S'standing'
p2583
tp2584
(lp2585
S'there.)'
p2586
as(g420
g698
tp2587
(lp2588
g699
as(g1480
g1483
tp2589
(lp2590
g426
as(g89
g1665
tp2591
(lp2592
g1666
as(g313
g316
tp2593
(lp2594
S'open'
p2595
as(g1038
S'gets'
p2596
tp2597
(lp2598
S'to'
p2599
ag89
as(g583
g586
tp2600
(lp2601
g290
as(S"NAME3's"
p2602
S'little'
p2603
tp2604
(lp2605
g1142
as(S'off'
p2606
S'each'
p2607
tp2608
(lp2609
S'light'
p2610
as(S'NOW'
p2611
g1315
tp2612
(lp2613
g1316
as(S'second,'
p2614
S'and'
p2615
tp2616
(lp2617
S'than'
p2618
as(S'NAME4'
p2619
g1214
tp2620
(lp2621
g1829
as(g652
g2355
tp2622
(lp2623
g1334
as(g136
g1366
tp2624
(lp2625
S'be'
p2626
as(g476
g479
tp2627
(lp2628
g1741
as(g906
g165
tp2629
(lp2630
g1416
aS'back'
p2631
as(g2615
g2618
tp2632
(lp2633
g58
ag2214
as(g729
g703
tp2634
(lp2635
g704
ag774
as(g737
g1499
tp2636
(lp2637
g2460
as(g294
g811
tp2638
(lp2639
g812
as(g2026
g223
tp2640
(lp2641
g224
ag2265
as(g1376
g1626
tp2642
(lp2643
g1627
as(g393
g1297
tp2644
(lp2645
g1179
as(g1509
g1512
tp2646
(lp2647
g773
as(g1965
S'towards'
p2648
tp2649
(lp2650
S'the'
p2651
as(g1345
g1348
tp2652
(lp2653
g1908
as(g1572
g1575
tp2654
(lp2655
g53
as(g1311
g1314
tp2656
(lp2657
g1451
as(S'spins'
p2658
S'in'
p2659
tp2660
(lp2661
S'the'
p2662
as(S'window'
p2663
S'to'
p2664
tp2665
(lp2666
g2464
as(S'NOW'
p2667
g2172
tp2668
(lp2669
g1887
aS'pans'
p2670
ag795
ag1298
aS'follows'
p2671
as(g247
S'have'
p2672
tp2673
(lp2674
S'NAME2'
p2675
ag74
as(g1575
g53
tp2676
(lp2677
g54
as(S'go'
p2678
g2631
tp2679
(lp2680
g816
as(S'Boiler'
p2681
S'Room.'
p2682
tp2683
(lp2684
S'END'
p2685
as(g2417
S'of'
p2686
tp2687
(lp2688
g1591
as(g1709
g1712
tp2689
(lp2690
g1609
as(g2565
g89
tp2691
(lp2692
S'stop'
p2693
as(g606
g609
tp2694
(lp2695
g89
as(g896
g89
tp2696
(lp2697
g628
as(g171
g174
tp2698
(lp2699
g1699
as(g609
g89
tp2700
(lp2701
g404
ag2349
as(g64
g67
tp2702
(lp2703
g1566
ag1944
as(S'porch'
p2704
S'and'
p2705
tp2706
(lp2707
S'into'
p2708
as(S'and'
p2709
S'disconnected,'
p2710
tp2711
(lp2712
S'strobe'
p2713
as(S'they'
p2714
S'accidentally'
p2715
tp2716
(lp2717
S'hit'
p2718
as(S'suddenly'
p2719
g1865
tp2720
(lp2721
g1866
as(g2429
g1620
tp2722
(lp2723
S'with'
p2724
as(g1688
S'out.'
p2725
tp2726
(lp2727
S'END'
p2728
as(S'entitled'
p2729
S':'
p2730
tp2731
(lp2732
g198
as(g1489
g1053
tp2733
(lp2734
g1054
aS'boy.'
p2735
as(g233
g1231
tp2736
(lp2737
g1377
as(g422
g425
tp2738
(lp2739
S'and'
p2740
as(S'for'
p2741
S'half'
p2742
tp2743
(lp2744
g89
as(g2261
g2264
tp2745
(lp2746
g2039
as(g2136
g1462
tp2747
(lp2748
g1463
as(S'NAME4'
p2749
g46
tp2750
(lp2751
g218
as(S'camera'
p2752
S'on'
p2753
tp2754
(lp2755
g2372
as(S'BEGIN'
p2756
g115
tp2757
(lp2758
g116
ag528
aS'We'
p2759
ag999
ag83
ag1392
ag2172
ag2070
ag1340
aS'He'
p2760
aS'Camera'
p2761
ag2051
aS'NAME1'
p2762
ag377
aS'(trails'
p2763
ag244
aS'NAME1'
p2764
ag1232
ag486
aS'After'
p2765
aS'NAME1'
p2766
aS'The'
p2767
ag1237
ag549
aS'It'
p2768
aS'NAME3'
p2769
ag1781
ag1092
ag1245
ag2243
aS'NAME3'
p2770
ag873
ag1656
aS'NAME3'
p2771
aS'(NAME1'
p2772
aS'Scene'
p2773
ag1844
aS'After'
p2774
ag2169
aS'After'
p2775
aS'(more'
p2776
aS'(he'
p2777
ag853
aS'(to'
p2778
ag1303
aS'They'
p2779
aS'NAME3'
p2780
aS'The'
p2781
ag1211
ag719
aS'(glancing'
p2782
ag2321
ag2619
aS'He'
p2783
aS'The'
p2784
aS'The'
p2785
ag509
aS'The'
p2786
ag1856
ag2018
aS'He\xe2\x80\x99ll'
p2787
aS'The'
p2788
ag296
aS'the'
p2789
aS'NAME2'
p2790
ag1895
aS'The'
p2791
aS'NAME2'
p2792
ag2541
aS'Song'
p2793
aS'The'
p2794
aS'The'
p2795
aS'Try'
p2796
ag2233
aS'NAME1'
p2797
ag1447
aS'At'
p2798
aS'(short'
p2799
aS'We'
p2800
ag2317
ag1007
ag389
ag2312
ag1875
ag194
aS'It'
p2801
aS"NAME3's"
p2802
ag1270
aS'The'
p2803
ag1183
ag2138
ag977
ag31
ag1146
ag31
ag676
ag1847
ag2521
aS'You'
p2804
aS'NAME1'
p2805
aS'The'
p2806
aS'They'
p2807
aS'They'
p2808
ag2602
aS'NAME3'
p2809
aS'NAME1'
p2810
aS'The'
p2811
ag1363
aS'The'
p2812
aS'NAME3'
p2813
aS'It'
p2814
ag963
aS'NAME1'
p2815
ag794
aS'NAME3'
p2816
ag476
ag1315
ag2494
ag1749
ag2390
ag1385
aS'(NAME3'
p2817
ag663
ag452
ag783
aS'Camera'
p2818
aS'Red'
p2819
ag1599
aS'Bob'
p2820
aS'(slightly'
p2821
ag2176
ag1356
ag229
aS'The'
p2822
ag239
ag2252
aS'(NAME1'
p2823
ag1993
ag573
aS'He'
p2824
ag2084
ag1175
aS'END'
p2825
as(g2508
g2511
tp2826
(lp2827
g1548
as(g2664
g2464
tp2828
(lp2829
g2465
as(g1201
g1204
tp2830
(lp2831
g2457
as(g101
g104
tp2832
(lp2833
g896
as(g1789
g1882
tp2834
(lp2835
g1883
as(S'and'
p2836
S'pans'
p2837
tp2838
(lp2839
g2330
as(g2441
g1367
tp2840
(lp2841
g1368
as(S'listening,'
p2842
g2225
tp2843
(lp2844
g2226
as(g2128
g2131
tp2845
(lp2846
g89
as(S'are'
p2847
S'in'
p2848
tp2849
(lp2850
S'the'
p2851
as(S'NOW'
p2852
g2772
tp2853
(lp2854
g358
ag1008
ag2177
ag6
as(g2477
g681
tp2855
(lp2856
g682
as(S'NOW'
p2857
g2796
tp2858
(lp2859
S'to'
p2860
as(S'as'
p2861
g1998
tp2862
(lp2863
g1832
as(g425
g2740
tp2864
(lp2865
S'start'
p2866
as(S'mexican'
p2867
S'worker'
p2868
tp2869
(lp2870
S'on'
p2871
as(g2808
g2369
tp2872
(lp2873
g265
as(S'continue'
p2874
g461
tp2875
(lp2876
g462
as(g1248
g2493
tp2877
(lp2878
g1408
as(g1676
g2117
tp2879
(lp2880
g1860
aS'ground)'
p2881
as(g89
S'short'
p2882
tp2883
(lp2884
S'pause'
p2885
as(g1320
g1323
tp2886
(lp2887
S'care)'
p2888
as(g306
g1039
tp2889
(lp2890
g1040
as(g2501
g600
tp2891
(lp2892
g601
as(g1093
g88
tp2893
(lp2894
g89
as(g99
g619
tp2895
(lp2896
g620
as(g1813
g2362
tp2897
(lp2898
S'to'
p2899
as(g1143
g275
tp2900
(lp2901
g276
as(g895
g2545
tp2902
(lp2903
g2546
as(g531
S'across'
p2904
tp2905
(lp2906
g753
as(g1066
g1069
tp2907
(lp2908
S'hand'
p2909
as(g833
g89
tp2910
(lp2911
g743
as(g2530
g2064
tp2912
(lp2913
g723
as(g802
g805
tp2914
(lp2915
g1793
as(g129
g908
tp2916
(lp2917
g1950
as(S'and'
p2918
g1522
tp2919
(lp2920
g1523
as(g1899
g1689
tp2921
(lp2922
g2281
as(g217
g1960
tp2923
(lp2924
g1989
as(g757
S'and'
p2925
tp2926
(lp2927
S'see'
p2928
as(g2782
g188
tp2929
(lp2930
g189
as(S'NOW'
p2931
g83
tp2932
(lp2933
g84
as(S'NOW'
p2934
g1895
tp2935
(lp2936
g1896
as(g909
g168
tp2937
(lp2938
S'down'
p2939
ag2386
as(S'the'
p2940
g1501
tp2941
(lp2942
S'END'
p2943
as(S'obviously'
p2944
g2147
tp2945
(lp2946
g2100
as(g2141
g2456
tp2947
(lp2948
S'us?"'
p2949
as(g2804
g1561
tp2950
(lp2951
g988
as(g2787
S'take'
p2952
tp2953
(lp2954
g89
as(g664
g667
tp2955
(lp2956
S'END'
p2957
as(g2713
S'effect.'
p2958
tp2959
(lp2960
S'END'
p2961
as(g1028
g1031
tp2962
(lp2963
S'NAME1.'
p2964
ag582
ag1431
as(g1011
g1747
tp2965
(lp2966
g931
as(S'approach'
p2967
g582
tp2968
(lp2969
g583
as(g1492
g2298
tp2970
(lp2971
S'END'
p2972
as(S'NOW'
p2973
g2765
tp2974
(lp2975
g89
aS'10'
p2976
ag89
as(g1199
g1478
tp2977
(lp2978
g2358
as(S'NOW'
p2979
g853
tp2980
(lp2981
g854
aS'NAME2)'
p2982
as(g560
g563
tp2983
(lp2984
S'END'
p2985
as(g2412
g41
tp2986
(lp2987
g42
as(g1134
g1137
tp2988
(lp2989
g1943
as(g1016
g1019
tp2990
(lp2991
S'start'
p2992
ag2570
ag2967
ag1430
as(S'is'
p2993
g2944
tp2994
(lp2995
g2147
as(S'but'
p2996
g2118
tp2997
(lp2998
g1138
as(S'goes'
p2999
g306
tp3000
(lp3001
g1039
as(g1994
g1997
tp3002
(lp3003
S'to'
p3004
as(g1257
S'throwing'
p3005
tp3006
(lp3007
S'it'
p3008
as(S'out'
p3009
g1044
tp3010
(lp3011
g1045
as(g1357
g499
tp3012
(lp3013
g500
as(g754
g757
tp3014
(lp3015
g2925
as(S'doing'
p3016
S'an'
p3017
tp3018
(lp3019
S'interview.'
p3020
as(g1206
g1209
tp3021
(lp3022
g1459
as(g1793
g1796
tp3023
(lp3024
g412
as(g2768
g1219
tp3025
(lp3026
g1220
ag2377
ag1680
as(g2560
g1504
tp3027
(lp3028
g1505
as(g1108
g768
tp3029
(lp3030
g769
ag1557
as(g2885
S'waiting'
p3031
tp3032
(lp3033
g1032
as(g1908
g1911
tp3034
(lp3035
g317
as(g2618
g58
tp3036
(lp3037
g59
as(g2457
g1020
tp3038
(lp3039
g1021
as(S'disappears'
p3040
g2741
tp3041
(lp3042
g2742
as(g2246
g2709
tp3043
(lp3044
g2710
as(g2800
g533
tp3045
(lp3046
g1602
as(g887
g2719
tp3047
(lp3048
g1865
as(S'to'
p3049
g2029
tp3050
(lp3051
S'and'
p3052
as(g121
g247
tp3053
(lp3054
g2672
as(g1713
g1716
tp3055
(lp3056
g1372
as(g958
g961
tp3057
(lp3058
S'END'
p3059
as(g25
g1839
tp3060
(lp3061
g2678
as(S'the'
p3062
g1084
tp3063
(lp3064
g95
as(S'and'
p3065
S'yells'
p3066
tp3067
(lp3068
S'out\xe2\x80\xa6'
p3069
as(g94
g2075
tp3070
(lp3071
g1929
as(g2610
S'as'
p3072
tp3073
(lp3074
S'he'
p3075
as(g89
g2212
tp3076
(lp3077
g2103
as(S'As'
p3078
S'he'
p3079
tp3080
(lp3081
S'goes'
p3082
as(g2599
S'him.'
p3083
tp3084
(lp3085
S'END'
p3086
as(g1588
g338
tp3087
(lp3088
g339
as(g1283
g878
tp3089
(lp3090
g879
as(g2133
g2136
tp3091
(lp3092
g1462
as(g764
g767
tp3093
(lp3094
g1553
as(S'NOW'
p3095
g2802
tp3096
(lp3097
S'Mom'
p3098
ag2603
as(g1767
S'finishing'
p3099
tp3100
(lp3101
g1164
as(g1932
g1935
tp3102
(lp3103
S'speakerphone,'
p3104
as(g89
g1112
tp3105
(lp3106
g1113
as(g2480
g353
tp3107
(lp3108
g354
as(S'plays'
p3109
S'in'
p3110
tp3111
(lp3112
g2940
as(g2030
g2033
tp3113
(lp3114
g2218
ag2836
as(S'speaking'
p3115
S'into'
p3116
tp3117
(lp3118
g89
as(g2769
g1048
tp3119
(lp3120
g1049
as(g2355
g1334
tp3121
(lp3122
g1335
as(g388
g778
tp3123
(lp3124
g779
as(g2217
g641
tp3125
(lp3126
g642
ag1915
ag2681
as(g2175
g2476
tp3127
(lp3128
g2477
aS'chair.'
p3129
ag835
ag2132
ag2497
aS'end,'
p3130
ag445
ag1225
ag636
as(g2010
S'but'
p3131
tp3132
(lp3133
S'he\xe2\x80\x99ll'
p3134
as(g2349
g1817
tp3135
(lp3136
g89
as(g1173
g2044
tp3137
(lp3138
g2045
as(S'frustratedly'
p3139
S'onto'
p3140
tp3141
(lp3142
S'the'
p3143
as(S'over'
p3144
S'confused.'
p3145
tp3146
(lp3147
S'END'
p3148
as(g462
g465
tp3149
(lp3150
g2424
as(g3052
S'gives'
p3151
tp3152
(lp3153
S'him'
p3154
as(S'begins'
p3155
g1771
tp3156
(lp3157
g1772
as(g3131
g3134
tp3158
(lp3159
g2345
as(g500
g503
tp3160
(lp3161
S'END'
p3162
as(g1064
g3065
tp3163
(lp3164
g3066
as(S'NOW'
p3165
g2821
tp3166
(lp3167
S'interested)'
p3168
as(S'NOW'
p3169
g2776
tp3170
(lp3171
S'silence)'
p3172
as(g2803
g133
tp3173
(lp3174
S'family'
p3175
as(g2817
g1286
tp3176
(lp3177
g921
as(g1553
g1556
tp3178
(lp3179
S'END'
p3180
as(g1528
g1531
tp3181
(lp3182
S'END'
p3183
as(g3008
g3139
tp3184
(lp3185
g3140
as(g1061
g1064
tp3186
(lp3187
g3065
as(g528
g531
tp3188
(lp3189
g2904
as(g1187
g1190
tp3190
(lp3191
S'slowly'
p3192
as(g1073
g2842
tp3193
(lp3194
g2225
as(g925
g2197
tp3195
(lp3196
S'END'
p3197
as(g2824
S'develops'
p3198
tp3199
(lp3200
g89
as(g2882
g2885
tp3201
(lp3202
g3031
as(g2218
g2221
tp3203
(lp3204
g1537
as(g1483
g426
tp3205
(lp3206
g427
as(g911
g169
tp3207
(lp3208
g2127
as(S'the'
p3209
g3130
tp3210
(lp3211
S'flicking'
p3212
as(g1405
g443
tp3213
(lp3214
g1587
as(S'something'
p3215
S'more)'
p3216
tp3217
(lp3218
S'END'
p3219
as(g1768
g2380
tp3220
(lp3221
S'END'
p3222
as(g2819
S'breasted'
p3223
tp3224
(lp3225
S'robin)'
p3226
as(S'NOW'
p3227
g2763
tp3228
(lp3229
S'off'
p3230
as(g2301
g183
tp3231
(lp3232
g184
as(g1707
g2150
tp3233
(lp3234
g2151
as(g627
g920
tp3235
(lp3236
S'back'
p3237
as(S'twirling'
p3238
g1919
tp3239
(lp3240
g1920
as(g714
g717
tp3241
(lp3242
g1187
as(S'NAME4'
p3243
g47
tp3244
(lp3245
g2583
as(g89
g2614
tp3246
(lp3247
g2615
as(g744
g747
tp3248
(lp3249
S'the'
p3250
as(g168
g2939
tp3251
(lp3252
g1087
as(g1904
g3129
tp3253
(lp3254
S'END'
p3255
as(g550
g553
tp3256
(lp3257
S'on'
p3258
as(g84
g87
tp3259
(lp3260
g1434
as(g2575
S"he's"
p3261
tp3262
(lp3263
S'sad.'
p3264
as(S'the'
p3265
g2132
tp3266
(lp3267
g2133
ag2498
as(g2595
S'it.'
p3268
tp3269
(lp3270
S'END'
p3271
as(g1752
g1253
tp3272
(lp3273
g1254
as(g481
g484
tp3274
(lp3275
g1673
as(g1733
g1496
tp3276
(lp3277
S'it'
p3278
as(g2409
g2412
tp3279
(lp3280
g41
as(g1879
S'their'
p3281
tp3282
(lp3283
g758
as(S'NOW'
p3284
g2787
tp3285
(lp3286
g2952
as(g1160
g1814
tp3287
(lp3288
g144
as(g2453
g2512
tp3289
(lp3290
g2513
as(g2753
g2372
tp3291
(lp3292
g456
as(g106
g109
tp3293
(lp3294
S'the'
p3295
as(g5
S'is'
p3296
tp3297
(lp3298
g89
as(S'at'
p3299
S'table'
p3300
tp3301
(lp3302
g3016
as(S'NOW'
p3303
g2804
tp3304
(lp3305
g1561
as(g2764
S'will'
p3306
tp3307
(lp3308
S'be'
p3309
ag2261
ag1532
ag1283
aS'be'
p3310
ag2276
as(g376
g1324
tp3311
(lp3312
g1325
as(g179
g182
tp3313
(lp3314
g957
as(g1806
g1809
tp3315
(lp3316
S'END'
p3317
as(g2386
g2389
tp3318
(lp3319
S'and'
p3320
as(g3192
g2658
tp3321
(lp3322
g2659
as(g2282
g2285
tp3323
(lp3324
g2255
as(g1178
g559
tp3325
(lp3326
g560
as(g2057
g1986
tp3327
(lp3328
g1479
as(g2075
g1929
tp3329
(lp3330
g21
as(g2798
S'the'
p3331
tp3332
(lp3333
S'very'
p3334
as(g2866
g3238
tp3335
(lp3336
g1919
as(g2362
g2899
tp3337
(lp3338
g3265
as(g2465
g2468
tp3339
(lp3340
g834
as(S'and'
p3341
g1722
tp3342
(lp3343
g1723
as(g489
g2057
tp3344
(lp3345
g1986
as(S'NOW'
p3346
g2390
tp3347
(lp3348
g2391
as(g2214
g2217
tp3349
(lp3350
g641
as(g3098
g1938
tp3351
(lp3352
g1939
as(g2783
g2993
tp3353
(lp3354
g2944
as(g2346
g1517
tp3355
(lp3356
g1518
as(g2675
S'enter'
p3357
tp3358
(lp3359
g3062
as(g752
g1764
tp3360
(lp3361
g1797
as(g89
g792
tp3362
(lp3363
g2160
as(S'NOW'
p3364
g2321
tp3365
(lp3366
g2322
as(S'NOW'
p3367
g2817
tp3368
(lp3369
g1286
ag1994
as(g2816
g1571
tp3370
(lp3371
g1572
as(S'realizing'
p3372
g431
tp3373
(lp3374
g432
as(g2256
g2259
tp3375
(lp3376
g1579
as(g209
g212
tp3377
(lp3378
S'the'
p3379
as(g1485
g1488
tp3380
(lp3381
g2704
ag2752
as(g2485
g1840
tp3382
(lp3383
g1274
as(g2807
S'wanna'
p3384
tp3385
(lp3386
S'hear'
p3387
as(g2818
g2671
tp3388
(lp3389
S'his'
p3390
as(g1170
g1173
tp3391
(lp3392
g2044
as(S'floor'
p3393
g2729
tp3394
(lp3395
g2730
as(g1495
S'foreground'
p3396
tp3397
(lp3398
S'with'
p3399
as(g3296
g89
tp3400
(lp3401
g491
as(g682
g89
tp3402
(lp3403
g1311
as(g2404
S'looks'
p3404
tp3405
(lp3406
g68
as(g2438
g2441
tp3407
(lp3408
g1367
as(g3309
g1765
tp3409
(lp3410
g945
aS'the'
p3411
as(g3212
g2155
tp3412
(lp3413
g1870
as(g2063
g2437
tp3414
(lp3415
g2438
as(S'NOW'
p3416
g1146
tp3417
(lp3418
g1147
as(g49
g52
tp3419
(lp3420
g1513
as(g2868
g2871
tp3421
(lp3422
g78
as(g1325
g1328
tp3423
(lp3424
g1489
ag826
as(S'NOW'
p3425
g2793
tp3426
(lp3427
S'to'
p3428
as(g2473
g1542
tp3429
(lp3430
g1543
as(g449
g1329
tp3431
(lp3432
g1330
as(g1350
g610
tp3433
(lp3434
g611
as(g3175
g567
tp3435
(lp3436
g568
as(g1516
g1894
tp3437
(lp3438
S'wall.'
p3439
as(g2820
S'Ross'
p3440
tp3441
(lp3442
g3109
as(g3250
S'floor.)'
p3443
tp3444
(lp3445
S'END'
p3446
as(g2799
g100
tp3447
(lp3448
g101
as(g92
g566
tp3449
(lp3450
g2433
as(S'NOW'
p3451
g1356
tp3452
(lp3453
g1357
as(g166
g521
tp3454
(lp3455
g1810
as(S'may'
p3456
g2308
tp3457
(lp3458
g1129
as(g3281
g758
tp3459
(lp3460
g759
as(g1150
g1578
tp3461
(lp3462
S'END'
p3463
as(S'Begin'
p3464
g1258
tp3465
(lp3466
g399
as(S'NOW'
p3467
g2169
tp3468
(lp3469
g504
as(g1972
g1344
tp3470
(lp3471
g1345
as(g135
S'will'
p3472
tp3473
(lp3474
S'be'
p3475
as(g702
S'and'
p3476
tp3477
(lp3478
S'walks'
p3479
as(g2154
g2448
tp3480
(lp3481
g2058
as(g192
g888
tp3482
(lp3483
g889
as(S'NOW'
p3484
g1847
tp3485
(lp3486
g1848
as(g736
g1498
tp3487
(lp3488
g1612
as(g815
g2063
tp3489
(lp3490
g2437
as(g1599
g251
tp3491
(lp3492
g252
as(g164
g1965
tp3493
(lp3494
g2648
as(S'with'
p3495
g930
tp3496
(lp3497
g1975
as(g782
g3078
tp3498
(lp3499
g3079
as(g595
g895
tp3500
(lp3501
g2545
as(g138
g912
tp3502
(lp3503
g2003
as(S'get'
p3504
S'louder.'
p3505
tp3506
(lp3507
S'END'
p3508
as(g1070
g1073
tp3509
(lp3510
g2842
as(g1583
g1586
tp3511
(lp3512
g2213
as(g2285
g2255
tp3513
(lp3514
g2256
as(g222
g2554
tp3515
(lp3516
g2555
as(g1419
g2663
tp3517
(lp3518
g2664
as(g1215
g1218
tp3519
(lp3520
S'with'
p3521
as(g40
g1757
tp3522
(lp3523
g89
as(g2939
g1087
tp3524
(lp3525
g1088
as(g2397
g2271
tp3526
(lp3527
g2272
as(g2516
g420
tp3528
(lp3529
g698
as(g1190
g3192
tp3530
(lp3531
g2658
as(g3230
g2861
tp3532
(lp3533
g1998
as(g1303
g1306
tp3534
(lp3535
S'past'
p3536
as(g1836
S'say'
p3537
tp3538
(lp3539
g3215
as(g1874
g1907
tp3540
(lp3541
g89
as(g2777
g3155
tp3542
(lp3543
g1771
as(g204
g207
tp3544
(lp3545
g2472
as(S'starts'
p3546
g367
tp3547
(lp3548
g368
as(g2774
g2976
tp3549
(lp3550
S'seconds'
p3551
as(g1290
g1293
tp3552
(lp3553
g1852
ag2918
as(g163
g48
tp3554
(lp3555
g49
as(S'will'
p3556
g163
tp3557
(lp3558
g48
as(g3521
g929
tp3559
(lp3560
g1249
ag1685
as(g1458
g2417
tp3561
(lp3562
g2686
as(g1306
g3536
tp3563
(lp3564
g1484
as(S'NOW'
p3565
g1392
tp3566
(lp3567
g1393
as(g3130
g3212
tp3568
(lp3569
g2155
as(g2693
g2432
tp3570
(lp3571
S'END'
p3572
as(g1031
g2964
tp3573
(lp3574
S'END'
p3575
as(g3223
g3226
tp3576
(lp3577
S'END'
p3578
as(g2821
g3168
tp3579
(lp3580
S'END'
p3581
as(g2528
g3464
tp3582
(lp3583
g1258
as(g2740
g2866
tp3584
(lp3585
g3238
as(g1431
g312
tp3586
(lp3587
g313
as(g1685
g1688
tp3588
(lp3589
g2725
as(g2742
g89
tp3590
(lp3591
g2614
as(g2771
g862
tp3592
(lp3593
g863
as(g2546
g2549
tp3594
(lp3595
g2385
as(g89
g1692
tp3596
(lp3597
g2561
as(g2562
g2565
tp3598
(lp3599
g89
as(g889
g892
tp3600
(lp3601
g1320
as(g2290
g1717
tp3602
(lp3603
g1718
as(g1689
g2281
tp3604
(lp3605
g2282
as(g1019
g2992
tp3606
(lp3607
S'to'
p3608
as(g1772
g870
tp3609
(lp3610
g728
as(g2456
g2949
tp3611
(lp3612
S'END'
p3613
as(g1440
g1443
tp3614
(lp3615
S'END'
p3616
as(g114
g1734
tp3617
(lp3618
g1735
as(S'NOW'
p3619
g2769
tp3620
(lp3621
g1048
ag1093
ag1961
ag862
ag708
ag978
aS'will'
p3622
aS'will'
p3623
ag1571
as(g2715
g2718
tp3624
(lp3625
S'mute.'
p3626
as(g777
g1608
tp3627
(lp3628
g89
as(g932
g935
tp3629
(lp3630
g110
as(g2583
g2586
tp3631
(lp3632
S'END'
p3633
as(g2117
g1860
tp3634
(lp3635
g1861
as(g2264
g2039
tp3636
(lp3637
g668
as(S'NOW'
p3638
g2779
tp3639
(lp3640
g3456
ag1876
ag3384
ag2369
as(g3099
g1164
tp3641
(lp3642
g1165
as(g258
g149
tp3643
(lp3644
g150
ag421
as(g1758
g1761
tp3645
(lp3646
g2749
as(g699
g702
tp3647
(lp3648
g3476
as(g2544
g3504
tp3649
(lp3650
g3505
as(g1069
g2909
tp3651
(lp3652
g3341
as(g373
g376
tp3653
(lp3654
g1324
as(g1695
g2681
tp3655
(lp3656
g2682
as(g779
g782
tp3657
(lp3658
g3078
as(g928
g2305
tp3659
(lp3660
S'END'
p3661
as(g953
g956
tp3662
(lp3663
g685
as(g3622
S'continue...'
p3664
tp3665
(lp3666
S'END'
p3667
as(g2776
g3172
tp3668
(lp3669
S'END'
p3670
as(g807
g810
tp3671
(lp3672
g2011
as(g15
g177
tp3673
(lp3674
g2487
as(g1310
g3393
tp3675
(lp3676
g2729
as(g361
g1825
tp3677
(lp3678
S'END'
p3679
as(g3104
g2714
tp3680
(lp3681
g2715
as(g352
g2209
tp3682
(lp3683
g89
as(g2085
g2088
tp3684
(lp3685
S'he'
p3686
as(g772
g1622
tp3687
(lp3688
g2550
as(g1866
g1869
tp3689
(lp3690
S'up.'
p3691
as(g719
g722
tp3692
(lp3693
S'intense'
p3694
as(g2648
g2651
tp3695
(lp3696
S'window.'
p3697
as(g1792
g2575
tp3698
(lp3699
g3261
ag1730
ag686
as(g2672
g2675
tp3700
(lp3701
g3357
as(S'the'
p3702
g2109
tp3703
(lp3704
S'END'
p3705
as(g1766
g2529
tp3706
(lp3707
g2530
as(g2759
g532
tp3708
(lp3709
S'down'
p3710
as(g3066
g3069
tp3711
(lp3712
S'END'
p3713
as(g1828
g2010
tp3714
(lp3715
g3131
as(g2401
g2404
tp3716
(lp3717
g3404
ag2999
as(g2221
g1537
tp3718
(lp3719
g436
as(g2779
g3456
tp3720
(lp3721
g2308
as(g2384
g3299
tp3722
(lp3723
g3300
as(g662
g869
tp3724
(lp3725
S'three'
p3726
as(g1214
g1829
tp3727
(lp3728
g554
as(g3082
g305
tp3729
(lp3730
g632
as(g3694
g2996
tp3731
(lp3732
g2118
as(g1659
g3009
tp3733
(lp3734
g1044
as(g3134
g2345
tp3735
(lp3736
g2346
as(g722
g3694
tp3737
(lp3738
g2996
as(g3143
g2881
tp3739
(lp3740
S'END'
p3741
as(g411
g969
tp3742
(lp3743
S'down'
p3744
as(g1620
g2724
tp3745
(lp3746
g89
as(g707
g2036
tp3747
(lp3748
g738
ag1016
ag3151
ag3243
as(g677
g680
tp3749
(lp3750
S'END'
p3751
as(g3004
S'closet,'
p3752
tp3753
(lp3754
g2067
as(S'NOW'
p3755
g2782
tp3756
(lp3757
g188
as(g908
g1950
tp3758
(lp3759
g1951
as(S'NOW'
p3760
g2773
tp3761
(lp3762
g2408
as(g2670
g2175
tp3763
(lp3764
g2476
as(g1669
g2560
tp3765
(lp3766
g1504
as(g437
g440
tp3767
(lp3768
S'END'
p3769
aS'END'
p3770
as(g1786
g2368
tp3771
(lp3772
S'END'
p3773
as(g1617
g1002
tp3774
(lp3775
g1003
ag1170
as(g3357
g3062
tp3776
(lp3777
g1084
as(g1935
g3104
tp3778
(lp3779
g2714
as(g1335
g1338
tp3780
(lp3781
g3115
as(g89
g2106
tp3782
(lp3783
g2401
as(g917
g2076
tp3784
(lp3785
g1652
as(g1323
g2888
tp3786
(lp3787
S'END'
p3788
as(g337
g89
tp3789
(lp3790
g1806
as(g1546
g2480
tp3791
(lp3792
g353
as(g1942
g1957
tp3793
(lp3794
g1424
as(S'NOW'
p3795
g2521
tp3796
(lp3797
g2522
as(g3151
g3154
tp3798
(lp3799
S'the'
p3800
as(g599
S'in'
p3801
tp3802
(lp3803
g1527
as(g1241
g1244
tp3804
(lp3805
S'into'
p3806
as(g3479
S'inside'
p3807
tp3808
(lp3809
g3049
as(g795
g798
tp3810
(lp3811
g1133
as(g3154
g3800
tp3812
(lp3813
S'flannel.'
p3814
as(g3806
S'it.'
p3815
tp3816
(lp3817
S'END'
p3818
as(S'NOW'
p3819
g2768
tp3820
(lp3821
g1219
aS'will'
p3822
ag1679
as(g3278
g788
tp3823
(lp3824
g89
ag89
ag89
ag89
ag89
as(g325
g16
tp3825
(lp3826
g17
as(g3384
g3387
tp3827
(lp3828
g1924
as(g512
g1027
tp3829
(lp3830
g1015
as(g1833
g1836
tp3831
(lp3832
g3537
as(g513
g516
tp3833
(lp3834
S'END'
p3835
as(g2718
g3626
tp3836
(lp3837
S'END'
p3838
as(g2904
g753
tp3839
(lp3840
g754
ag806
as(g2992
g3608
tp3841
(lp3842
S'be'
p3843
as(g520
S'as'
p3844
tp3845
(lp3846
g300
as(g1712
g1609
tp3847
(lp3848
g394
as(g27
g30
tp3849
(lp3850
g89
as(g2763
g3230
tp3851
(lp3852
g2861
as(S'NOW'
p3853
g2799
tp3854
(lp3855
g100
as(g1580
g763
tp3856
(lp3857
g764
as(g2925
g2928
tp3858
(lp3859
S'the'
p3860
as(g969
g3744
tp3861
(lp3862
S'to'
p3863
as(g734
g466
tp3864
(lp3865
g467
as(S'NOW'
p3866
g1232
tp3867
(lp3868
g1233
as(g3710
g372
tp3869
(lp3870
g373
ag2030
as(g79
g82
tp3871
(lp3872
S'END'
p3873
as(g495
g498
tp3874
(lp3875
g936
as(S'NOW'
p3876
g2819
tp3877
(lp3878
g3223
as(g2851
g1495
tp3879
(lp3880
g3396
as(g939
g1900
tp3881
(lp3882
g1901
ag2705
as(g1373
g1376
tp3883
(lp3884
g1626
as(g3537
g3215
tp3885
(lp3886
g3216
as(S'NOW'
p3887
g549
tp3888
(lp3889
g550
as(g3476
g3479
tp3890
(lp3891
g3807
as(g207
g2472
tp3892
(lp3893
g2473
as(g1757
g89
tp3894
(lp3895
g653
ag380
ag333
as(g3261
g3264
tp3896
(lp3897
S'END'
p3898
as(g538
S'strangely.'
p3899
tp3900
(lp3901
S'END'
p3902
as(g1371
g1766
tp3903
(lp3904
g2529
as(g2277
g2280
tp3905
(lp3906
g89
as(S'NOW'
p3907
g2252
tp3908
(lp3909
g362
as(g1911
g317
tp3910
(lp3911
g318
as(g3744
g3863
tp3912
(lp3913
g3209
as(g1894
g3439
tp3914
(lp3915
S'END'
p3916
as(g1852
g713
tp3917
(lp3918
g714
as(g169
g2127
tp3919
(lp3920
g2128
as(g936
g939
tp3921
(lp3922
g1900
ag3443
ag1776
ag1201
as(g787
g1971
tp3923
(lp3924
S'END'
p3925
as(g2805
S'looks'
p3926
tp3927
(lp3928
g3144
as(g1435
g1438
tp3929
(lp3930
g1195
as(g532
g3710
tp3931
(lp3932
g372
as(g3726
g480
tp3933
(lp3934
g481
as(g535
g538
tp3935
(lp3936
g3899
as(S'be'
p3937
g1767
tp3938
(lp3939
g3099
as(g1412
g1415
tp3940
(lp3941
S'END'
p3942
as(g1254
g1257
tp3943
(lp3944
g3005
ag2512
as(g1299
g89
tp3945
(lp3946
g2290
as(g596
g599
tp3947
(lp3948
g3801
as(g3005
g3008
tp3949
(lp3950
g3139
as(g1319
g2083
tp3951
(lp3952
S'END'
p3953
as(g1100
g2578
tp3954
(lp3955
S'END'
p3956
as(g1416
g1419
tp3957
(lp3958
g2663
aS'back'
p3959
as(g849
g852
tp3960
(lp3961
g1631
as(g1383
g2341
tp3962
(lp3963
g3495
as(g1692
g2561
tp3964
(lp3965
g2562
ag2209
as(g548
g1644
tp3966
(lp3967
g1645
as(g2765
g89
tp3968
(lp3969
g1112
ag2882
as(g1211
g213
tp3970
(lp3971
g214
as(g1844
g1289
tp3972
(lp3973
g1290
aS'of'
p3974
as(g2823
g6
tp3975
(lp3976
g7
as(g3396
g3399
tp3977
(lp3978
g1684
as(g3800
g3814
tp3979
(lp3980
S'END'
p3981
as(g1223
g89
tp3982
(lp3983
g1103
ag1665
as(g3300
g3016
tp3984
(lp3985
g3017
as(g791
g2251
tp3986
(lp3987
S'in'
p3988
as(g1225
g1228
tp3989
(lp3990
g3372
as(g999
g26
tp3991
(lp3992
g27
ag739
ag1549
ag3299
as(g1035
g2142
tp3993
(lp3994
g2143
as(g62
g2365
tp3995
(lp3996
g89
as(g3387
g1924
tp3997
(lp3998
g1925
as(g2607
g2610
tp3999
(lp4000
g3072
as(g1220
g1223
tp4001
(lp4002
g89
as(g1270
g1273
tp4003
(lp4004
g1932
as(g3440
g3109
tp4005
(lp4006
g3110
as(g686
g689
tp4007
(lp4008
g1263
as(g395
g398
tp4009
(lp4010
g1472
as(g1518
g1521
tp4011
(lp4012
S'camera'
p4013
as(g2928
g3860
tp4014
(lp4015
g2867
as(g3075
g948
tp4016
(lp4017
g949
as(g3860
g2867
tp4018
(lp4019
g2868
as(g2322
g1124
tp4020
(lp4021
g1125
as(g3334
g1401
tp4022
(lp4023
g1402
as(g712
g1411
tp4024
(lp4025
g1412
as(g1656
g1659
tp4026
(lp4027
g3009
as(g1438
g1195
tp4028
(lp4029
g1196
as(g2236
g2528
tp4030
(lp4031
g3464
as(g2243
g2246
tp4032
(lp4033
g2709
as(g2770
g1961
tp4034
(lp4035
g1962
ag709
ag183
ag3664
ag2874
ag2719
as(g3198
g89
tp4036
(lp4037
g671
as(g1621
g2354
tp4038
(lp4039
g1224
as(g354
g357
tp4040
(lp4041
g1028
as(g2793
g3428
tp4042
(lp4043
g605
as(g1776
g1779
tp4044
(lp4045
g2606
as(g3623
g2874
tp4046
(lp4047
g461
as(g1228
g3372
tp4048
(lp4049
g431
as(g1497
S'it'
p4050
tp4051
(lp4052
S'was'
p4053
as(g1749
g1752
tp4054
(lp4055
g1253
as(g2773
g2408
tp4056
(lp4057
g2409
as(g2730
g198
tp4058
(lp4059
g199
as(g2486
g2110
tp4060
(lp4061
g2111
as(g1400
g2397
tp4062
(lp4063
g2271
as(S'NOW'
p4064
g2051
tp4065
(lp4066
g2052
ag3040
ag3306
ag2260
ag2164
ag3926
aS'will'
p4067
ag2342
as(g735
g1497
tp4068
(lp4069
g4050
as(g2226
g1708
tp4070
(lp4071
g1709
as(g3320
S'glance'
p4072
tp4073
(lp4074
S'to'
p4075
as(g1869
g3691
tp4076
(lp4077
S'END'
p4078
as(g130
g2544
tp4079
(lp4080
g3504
as(g3536
g1484
tp4081
(lp4082
g1485
as(g2312
g2315
tp4083
(lp4084
g3937
as(g2493
g1408
tp4085
(lp4086
g1349
as(g1992
g388
tp4087
(lp4088
g778
as(g3031
g1032
tp4089
(lp4090
g89
as(g3926
g3144
tp4091
(lp4092
g3145
as(g1876
g1879
tp4093
(lp4094
g3281
as(g89
g970
tp4095
(lp4096
g971
as(g2361
S'in'
p4097
tp4098
(lp4099
g2295
as(g1267
g2485
tp4100
(lp4101
g1840
as(g2358
g2361
tp4102
(lp4103
g4097
as(g301
g304
tp4104
(lp4105
g2026
as(g371
g1038
tp4106
(lp4107
g2596
ag36
ag3556
aS'gets'
p4108
aS'will'
p4109
ag694
aS'pans'
p4110
ag2753
as(g697
g2836
tp4111
(lp4112
g2837
as(g540
g543
tp4113
(lp4114
g324
as(g586
g290
tp4115
(lp4116
g291
ag2847
as(g1954
g577
tp4117
(lp4118
g578
as(g3404
g68
tp4119
(lp4120
g69
as(g2952
g89
tp4121
(lp4122
g539
as(g2760
g3546
tp4123
(lp4124
g367
as(g2762
g3040
tp4125
(lp4126
g2741
as(g1764
g1797
tp4127
(lp4128
g1616
as(g2021
g2570
tp4129
(lp4130
g2097
as(g3379
g445
tp4131
(lp4132
g446
aS'and'
p4133
as(g89
g380
tp4134
(lp4135
g381
as(g3295
g806
tp4136
(lp4137
g807
as(g689
g1263
tp4138
(lp4139
g1264
as(g1496
g3278
tp4140
(lp4141
g788
as(g2802
g3098
tp4142
(lp4143
g1938
as(g2705
g2708
tp4144
(lp4145
g1914
ag3815
as(g4072
g4075
tp4146
(lp4147
S'the'
p4148
as(g533
g1602
tp4149
(lp4150
g1603
as(g1779
g2606
tp4151
(lp4152
g2607
as(g3390
S'gaze.'
p4153
tp4154
(lp4155
S'END'
p4156
as(g3959
g2241
tp4157
(lp4158
S'END'
p4159
as(g2710
g2713
tp4160
(lp4161
g2958
as(S'NOW'
p4162
g2820
tp4163
(lp4164
g3440
as(g2448
g2058
tp4165
(lp4166
g1439
as(g1997
g3004
tp4167
(lp4168
g3752
as(g3801
g1527
tp4169
(lp4170
g1528
as(g2259
g1579
tp4171
(lp4172
g1580
as(S'NOW'
p4173
g2798
tp4174
(lp4175
g3331
as(g3608
g3843
tp4176
(lp4177
S'audible.'
p4178
ag606
as(g321
g419
tp4179
(lp4180
S'window.'
p4181
as(g133
g3175
tp4182
(lp4183
g567
as(g1268
g2486
tp4184
(lp4185
g2110
as(g2772
g358
tp4186
(lp4187
g89
as(g2671
g3390
tp4188
(lp4189
g4153
as(g920
g3237
tp4190
(lp4191
g995
as(g89
g539
tp4192
(lp4193
g540
as(g1648
g36
tp4194
(lp4195
g37
ag1156
ag1979
as(g1962
g89
tp4196
(lp4197
g2517
as(g334
g337
tp4198
(lp4199
g89
as(g1533
g1536
tp4200
(lp4201
g3702
as(g2796
g2860
tp4202
(lp4203
g2124
as(g316
g2595
tp4204
(lp4205
g3268
as(g657
g441
tp4206
(lp4207
S'END'
p4208
as(g3017
g3020
tp4209
(lp4210
S'END'
p4211
as(g505
g508
tp4212
(lp4213
g1151
as(g2
g5
tp4214
(lp4215
g3296
ag2381
ag1758
as(g2871
g78
tp4216
(lp4217
g79
ag802
ag844
ag422
aS'porch.'
p4218
ag1696
ag1191
ag3393
as(g2389
g3320
tp4219
(lp4220
g4072
as(g1649
g2240
tp4221
(lp4222
g2508
as(g1091
g1205
tp4223
(lp4224
g1206
as(g2806
g134
tp4225
(lp4226
g1070
ag3472
as(g944
g2222
tp4227
(lp4228
g2579
as(g89
g333
tp4229
(lp4230
g334
as(g3331
g3334
tp4231
(lp4232
g1401
as(g4110
g1979
tp4233
(lp4234
g1980
as(g30
g89
tp4235
(lp4236
g1713
as(g3752
g2067
tp4237
(lp4238
g1096
as(g1338
g3115
tp4239
(lp4240
g3116
as(S'NOW'
p4241
g2760
tp4242
(lp4243
g3546
ag257
ag2993
ag1448
ag230
ag240
ag3198
ag2085
as(g1886
g170
tp4244
(lp4245
g171
as(g1468
g1471
tp4246
(lp4247
S'END'
p4248
as(g162
g520
tp4249
(lp4250
g3844
as(g631
g833
tp4251
(lp4252
g89
as(g1603
g1454
tp4253
(lp4254
g1455
as(g2433
g2436
tp4255
(lp4256
S'END'
p4257
as(g219
g222
tp4258
(lp4259
g2554
as(g2909
g3341
tp4260
(lp4261
g1722
as(g727
g2847
tp4262
(lp4263
g2848
as(g869
g3726
tp4264
(lp4265
g480
as(g1192
g178
tp4266
(lp4267
g179
as(g3843
g4178
tp4268
(lp4269
S'END'
p4270
as(g2596
g2599
tp4271
(lp4272
g3083
as(S'NOW'
p4273
g2777
tp4274
(lp4275
g3155
as(g2603
g1142
tp4276
(lp4277
g1143
as(g578
g581
tp4278
(lp4279
g1065
as(g2231
g1696
tp4280
(lp4281
g1467
ag1192
as(g42
g45
tp4282
(lp4283
S'the'
p4284
as(g620
g623
tp4285
(lp4286
g1215
as.